GAS LISTING /tmp/ccJosttx.s 			page 1


   1              		.file	"_thread.cpp"
   2              		.option pic
   3              		.option norelax
   4              		.text
   5              	.Ltext0:
   6              		.align	2
   7              		.globl	_ZN7_thread14thread_wrapperEv
   9              	_ZN7_thread14thread_wrapperEv:
  10              	.LFB35:
  11              		.file 1 "src/_thread.cpp"
   1:src/_thread.cpp **** //
   2:src/_thread.cpp **** // Created by os on 9/3/23.
   3:src/_thread.cpp **** //
   4:src/_thread.cpp **** 
   5:src/_thread.cpp **** #include "../h/_thread.hpp"
   6:src/_thread.cpp **** #include "../h/MemoryAllocator.hpp"
   7:src/_thread.cpp **** #include "../h/riscv.hpp"
   8:src/_thread.cpp **** 
   9:src/_thread.cpp **** _thread* _thread::running = nullptr;
  10:src/_thread.cpp **** 
  11:src/_thread.cpp **** void* operator new[](size_t n) {
  12:src/_thread.cpp ****     return MemoryAllocator::mem_alloc(n);
  13:src/_thread.cpp **** }
  14:src/_thread.cpp **** 
  15:src/_thread.cpp **** void operator delete[](void *p)  {
  16:src/_thread.cpp ****     MemoryAllocator::mem_free(p);
  17:src/_thread.cpp **** }
  18:src/_thread.cpp **** 
  19:src/_thread.cpp **** _thread *_thread::thread_create(_thread::Body body, void *args, void *stackSpace) {
  20:src/_thread.cpp ****     __putc('1');
  21:src/_thread.cpp ****     return new _thread(body, args, stackSpace);
  22:src/_thread.cpp **** }
  23:src/_thread.cpp **** void _thread::thread_dispatch() {
  24:src/_thread.cpp ****     _thread *current = running;
  25:src/_thread.cpp ****     if(current && current->state == 2){
  26:src/_thread.cpp ****         Scheduler::put(current);
  27:src/_thread.cpp ****     }
  28:src/_thread.cpp ****     running = Scheduler::get();
  29:src/_thread.cpp ****     _thread::contextSwitch(&current->context, &running->context);
  30:src/_thread.cpp **** }
  31:src/_thread.cpp **** 
  32:src/_thread.cpp **** void _thread::thread_wrapper() {
  12              		.loc 1 32 32
  13              		.cfi_startproc
  14 0000 130101FF 		addi	sp,sp,-16
  15              		.cfi_def_cfa_offset 16
  16 0004 23341100 		sd	ra,8(sp)
  17 0008 23308100 		sd	s0,0(sp)
  18              		.cfi_offset 1, -8
  19              		.cfi_offset 8, -16
  20 000c 13040101 		addi	s0,sp,16
  21              		.cfi_def_cfa 8, 0
  33:src/_thread.cpp ****     riscv::popSppSpie();
  22              		.loc 1 33 5
  23              		.loc 1 33 22 is_stmt 0
  24 0010 97000000 		call	_ZN5riscv10popSppSpieEv@plt
  24      E7800000 
GAS LISTING /tmp/ccJosttx.s 			page 2


  25              	.LVL0:
  34:src/_thread.cpp ****     running->state = 2;
  26              		.loc 1 34 5 is_stmt 1
  27              		.loc 1 34 14 is_stmt 0
  28 0018 97070000 		ld	a5,.LANCHOR0
  28      83B70700 
  29              		.loc 1 34 20
  30 0020 13072000 		li	a4,2
  31 0024 23BCE702 		sd	a4,56(a5)
  35:src/_thread.cpp ****     if (running->body)
  32              		.loc 1 35 5 is_stmt 1
  33              		.loc 1 35 18 is_stmt 0
  34 0028 03B78700 		ld	a4,8(a5)
  35              		.loc 1 35 5
  36 002c 63060702 		beqz	a4,.L2
  36:src/_thread.cpp ****     {
  37:src/_thread.cpp ****         running->body(running->args);
  37              		.loc 1 37 9 is_stmt 1
  38              		.loc 1 37 22 is_stmt 0
  39 0030 03B50703 		ld	a0,48(a5)
  40 0034 E7000700 		jalr	a4
  41              	.LVL1:
  42              	.L3:
  38:src/_thread.cpp ****     }
  39:src/_thread.cpp ****     else
  40:src/_thread.cpp ****     {
  41:src/_thread.cpp ****         running->myThread->run();
  42:src/_thread.cpp ****     }
  43:src/_thread.cpp ****     running->state = 4;
  43              		.loc 1 43 5 is_stmt 1
  44              		.loc 1 43 20 is_stmt 0
  45 0038 97070000 		ld	a5,.LANCHOR0
  45      83B70700 
  46 0040 13074000 		li	a4,4
  47 0044 23BCE702 		sd	a4,56(a5)
  44:src/_thread.cpp **** }
  48              		.loc 1 44 1
  49 0048 83308100 		ld	ra,8(sp)
  50              		.cfi_remember_state
  51              		.cfi_restore 1
  52 004c 03340100 		ld	s0,0(sp)
  53              		.cfi_restore 8
  54              		.cfi_def_cfa 2, 16
  55 0050 13010101 		addi	sp,sp,16
  56              		.cfi_def_cfa_offset 0
  57 0054 67800000 		jr	ra
  58              	.L2:
  59              		.cfi_restore_state
  41:src/_thread.cpp ****     }
  60              		.loc 1 41 9 is_stmt 1
  41:src/_thread.cpp ****     }
  61              		.loc 1 41 18 is_stmt 0
  62 0058 03B50700 		ld	a0,0(a5)
  41:src/_thread.cpp ****     }
  63              		.loc 1 41 32
  64 005c 83370500 		ld	a5,0(a0)
  65 0060 83B70701 		ld	a5,16(a5)
GAS LISTING /tmp/ccJosttx.s 			page 3


  41:src/_thread.cpp ****     }
  66              		.loc 1 41 31
  67 0064 E7800700 		jalr	a5
  68              	.LVL2:
  69 0068 6FF01FFD 		j	.L3
  70              		.cfi_endproc
  71              	.LFE35:
  73              		.align	2
  74              		.globl	_Znam
  76              	_Znam:
  77              	.LFB31:
  11:src/_thread.cpp ****     return MemoryAllocator::mem_alloc(n);
  78              		.loc 1 11 32 is_stmt 1
  79              		.cfi_startproc
  80              	.LVL3:
  81 006c 130101FF 		addi	sp,sp,-16
  82              		.cfi_def_cfa_offset 16
  83 0070 23341100 		sd	ra,8(sp)
  84 0074 23308100 		sd	s0,0(sp)
  85              		.cfi_offset 1, -8
  86              		.cfi_offset 8, -16
  87 0078 13040101 		addi	s0,sp,16
  88              		.cfi_def_cfa 8, 0
  12:src/_thread.cpp **** }
  89              		.loc 1 12 5
  12:src/_thread.cpp **** }
  90              		.loc 1 12 38 is_stmt 0
  91 007c 97000000 		call	_ZN15MemoryAllocator9mem_allocEm@plt
  91      E7800000 
  92              	.LVL4:
  13:src/_thread.cpp **** 
  93              		.loc 1 13 1
  94 0084 83308100 		ld	ra,8(sp)
  95              		.cfi_restore 1
  96 0088 03340100 		ld	s0,0(sp)
  97              		.cfi_restore 8
  98              		.cfi_def_cfa 2, 16
  99 008c 13010101 		addi	sp,sp,16
 100              		.cfi_def_cfa_offset 0
 101 0090 67800000 		jr	ra
 102              		.cfi_endproc
 103              	.LFE31:
 105              		.align	2
 106              		.globl	_ZdaPv
 108              	_ZdaPv:
 109              	.LFB32:
  15:src/_thread.cpp ****     MemoryAllocator::mem_free(p);
 110              		.loc 1 15 34 is_stmt 1
 111              		.cfi_startproc
 112              	.LVL5:
 113 0094 130101FF 		addi	sp,sp,-16
 114              		.cfi_def_cfa_offset 16
 115 0098 23341100 		sd	ra,8(sp)
 116 009c 23308100 		sd	s0,0(sp)
 117              		.cfi_offset 1, -8
 118              		.cfi_offset 8, -16
 119 00a0 13040101 		addi	s0,sp,16
GAS LISTING /tmp/ccJosttx.s 			page 4


 120              		.cfi_def_cfa 8, 0
  16:src/_thread.cpp **** }
 121              		.loc 1 16 5
  16:src/_thread.cpp **** }
 122              		.loc 1 16 30 is_stmt 0
 123 00a4 97000000 		call	_ZN15MemoryAllocator8mem_freeEPv@plt
 123      E7800000 
 124              	.LVL6:
  17:src/_thread.cpp **** 
 125              		.loc 1 17 1
 126 00ac 83308100 		ld	ra,8(sp)
 127              		.cfi_restore 1
 128 00b0 03340100 		ld	s0,0(sp)
 129              		.cfi_restore 8
 130              		.cfi_def_cfa 2, 16
 131 00b4 13010101 		addi	sp,sp,16
 132              		.cfi_def_cfa_offset 0
 133 00b8 67800000 		jr	ra
 134              		.cfi_endproc
 135              	.LFE32:
 137              		.align	2
 138              		.globl	_ZN7_thread13thread_createEPFvPvES0_S0_
 140              	_ZN7_thread13thread_createEPFvPvES0_S0_:
 141              	.LFB33:
  19:src/_thread.cpp ****     __putc('1');
 142              		.loc 1 19 83 is_stmt 1
 143              		.cfi_startproc
 144              		.cfi_personality 0x9b,DW.ref.__gxx_personality_v0
 145              		.cfi_lsda 0x1b,.LLSDA33
 146              	.LVL7:
 147 00bc 130101FD 		addi	sp,sp,-48
 148              		.cfi_def_cfa_offset 48
 149 00c0 23341102 		sd	ra,40(sp)
 150 00c4 23308102 		sd	s0,32(sp)
 151 00c8 233C9100 		sd	s1,24(sp)
 152 00cc 23382101 		sd	s2,16(sp)
 153 00d0 23343101 		sd	s3,8(sp)
 154 00d4 23304101 		sd	s4,0(sp)
 155              		.cfi_offset 1, -8
 156              		.cfi_offset 8, -16
 157              		.cfi_offset 9, -24
 158              		.cfi_offset 18, -32
 159              		.cfi_offset 19, -40
 160              		.cfi_offset 20, -48
 161 00d8 13040103 		addi	s0,sp,48
 162              		.cfi_def_cfa 8, 0
 163 00dc 13090500 		mv	s2,a0
 164 00e0 93890500 		mv	s3,a1
 165 00e4 130A0600 		mv	s4,a2
  20:src/_thread.cpp ****     return new _thread(body, args, stackSpace);
 166              		.loc 1 20 5
  20:src/_thread.cpp ****     return new _thread(body, args, stackSpace);
 167              		.loc 1 20 11 is_stmt 0
 168 00e8 13051003 		li	a0,49
 169              	.LVL8:
 170              	.LEHB0:
 171 00ec 97000000 		call	__putc@plt
GAS LISTING /tmp/ccJosttx.s 			page 5


 171      E7800000 
 172              	.LVL9:
  21:src/_thread.cpp **** }
 173              		.loc 1 21 5 is_stmt 1
  21:src/_thread.cpp **** }
 174              		.loc 1 21 46 is_stmt 0
 175 00f4 13050004 		li	a0,64
 176 00f8 97000000 		call	_Znwm@plt
 176      E7800000 
 177              	.LVL10:
 178              	.LEHE0:
 179 0100 93040500 		mv	s1,a0
 180              	.LVL11:
 181              	.LBB5:
 182              	.LBB6:
 183              		.file 2 "src/../h/_thread.hpp"
   1:src/../h/_thread.hpp **** //
   2:src/../h/_thread.hpp **** // Created by os on 9/3/23.
   3:src/../h/_thread.hpp **** //
   4:src/../h/_thread.hpp **** 
   5:src/../h/_thread.hpp **** #ifndef PROJECT_BASE_V1_1__THREAD_HPP
   6:src/../h/_thread.hpp **** #define PROJECT_BASE_V1_1__THREAD_HPP
   7:src/../h/_thread.hpp **** 
   8:src/../h/_thread.hpp **** #include "../lib/hw.h"
   9:src/../h/_thread.hpp **** #include "MemoryAllocator.hpp"
  10:src/../h/_thread.hpp **** #include "../h/scheduler.hpp"
  11:src/../h/_thread.hpp **** #include "../h/syscall_c.hpp"
  12:src/../h/_thread.hpp **** #include "../lib/console.h"
  13:src/../h/_thread.hpp **** #include "../h/syscall_cpp.hpp"
  14:src/../h/_thread.hpp **** 
  15:src/../h/_thread.hpp **** void * operator new[](size_t n);
  16:src/../h/_thread.hpp **** 
  17:src/../h/_thread.hpp **** void operator delete[](void *p);
  18:src/../h/_thread.hpp **** 
  19:src/../h/_thread.hpp **** class _thread {
  20:src/../h/_thread.hpp **** public:
  21:src/../h/_thread.hpp ****     struct Context {
  22:src/../h/_thread.hpp ****         uint64 ra;
  23:src/../h/_thread.hpp ****         uint64 sp;
  24:src/../h/_thread.hpp ****     };
  25:src/../h/_thread.hpp ****     using Body = void (*)(void*);
  26:src/../h/_thread.hpp **** 
  27:src/../h/_thread.hpp ****     static _thread *mainThread;
  28:src/../h/_thread.hpp ****     static _thread *running;
  29:src/../h/_thread.hpp **** 
  30:src/../h/_thread.hpp ****     static void thread_dispatch();
  31:src/../h/_thread.hpp ****     static int thread_exit();
  32:src/../h/_thread.hpp ****     static _thread* thread_create(Body body, void *args, void *stackSpace);
  33:src/../h/_thread.hpp ****     static void thread_wrapper();
  34:src/../h/_thread.hpp ****     static void thread_join(thread_t handle);
  35:src/../h/_thread.hpp ****     static void contextSwitch(Context *current, Context *next);
  36:src/../h/_thread.hpp **** 
  37:src/../h/_thread.hpp ****     ~_thread() { delete[] stack; }
  38:src/../h/_thread.hpp **** 
  39:src/../h/_thread.hpp **** private:
  40:src/../h/_thread.hpp **** 
  41:src/../h/_thread.hpp ****     friend class riscv;
GAS LISTING /tmp/ccJosttx.s 			page 6


  42:src/../h/_thread.hpp **** 
  43:src/../h/_thread.hpp ****     _thread(Body body, void *args, void *stackSpace) {
  44:src/../h/_thread.hpp ****         this->body = body;
 184              		.loc 2 44 9 is_stmt 1
 185              		.loc 2 44 20 is_stmt 0
 186 0104 23342501 		sd	s2,8(a0)
  45:src/../h/_thread.hpp ****         this->args = args;
 187              		.loc 2 45 9 is_stmt 1
 188              		.loc 2 45 20 is_stmt 0
 189 0108 23383503 		sd	s3,48(a0)
  46:src/../h/_thread.hpp ****         if(body != nullptr) {
 190              		.loc 2 46 9 is_stmt 1
 191 010c 630C0900 		beqz	s2,.L10
  47:src/../h/_thread.hpp ****             this->stack = (uint64*) stackSpace;
 192              		.loc 2 47 13
 193              		.loc 2 47 25 is_stmt 0
 194 0110 23304503 		sd	s4,32(a0)
  48:src/../h/_thread.hpp ****             __putc('a');
 195              		.loc 2 48 13 is_stmt 1
 196              		.loc 2 48 19 is_stmt 0
 197 0114 13051006 		li	a0,97
 198              	.LEHB1:
 199 0118 97000000 		call	__putc@plt
 199      E7800000 
 200              	.LVL12:
 201 0120 6F004001 		j	.L11
 202              	.L10:
  49:src/../h/_thread.hpp ****         }
  50:src/../h/_thread.hpp ****         else {
  51:src/../h/_thread.hpp ****             this->stack = nullptr;
 203              		.loc 2 51 13 is_stmt 1
 204              		.loc 2 51 25 is_stmt 0
 205 0124 23300502 		sd	zero,32(a0)
  52:src/../h/_thread.hpp ****             __putc('b');
 206              		.loc 2 52 13 is_stmt 1
 207              		.loc 2 52 19 is_stmt 0
 208 0128 13052006 		li	a0,98
 209 012c 97000000 		call	__putc@plt
 209      E7800000 
 210              	.LVL13:
 211              	.L11:
  53:src/../h/_thread.hpp ****         }
  54:src/../h/_thread.hpp ****         this->state = 2;
 212              		.loc 2 54 9 is_stmt 1
 213              		.loc 2 54 21 is_stmt 0
 214 0134 93072000 		li	a5,2
 215 0138 23BCF402 		sd	a5,56(s1)
  55:src/../h/_thread.hpp **** 
  56:src/../h/_thread.hpp ****         uint64 ra = 0;
 216              		.loc 2 56 9 is_stmt 1
 217              	.LVL14:
  57:src/../h/_thread.hpp ****         if(body != nullptr)
 218              		.loc 2 57 9
 219 013c 63000904 		beqz	s2,.L16
  58:src/../h/_thread.hpp ****             ra = (uint64) &thread_wrapper;
 220              		.loc 2 58 13
 221              		.loc 2 58 16 is_stmt 0
GAS LISTING /tmp/ccJosttx.s 			page 7


 222 0140 17070000 		lla	a4,_ZN7_thread14thread_wrapperEv
 222      13070700 
 223              	.LVL15:
 224              	.L12:
  59:src/../h/_thread.hpp ****         uint64 sp = 0;
 225              		.loc 2 59 9 is_stmt 1
  60:src/../h/_thread.hpp ****         if(stack != nullptr)
 226              		.loc 2 60 9
 227              		.loc 2 60 12 is_stmt 0
 228 0148 83B70402 		ld	a5,32(s1)
 229              		.loc 2 60 9
 230 014c 638C0702 		beqz	a5,.L17
  61:src/../h/_thread.hpp ****             sp = (uint64) &stack[DEFAULT_STACK_SIZE];
 231              		.loc 2 61 13 is_stmt 1
 232              		.loc 2 61 27 is_stmt 0
 233 0150 B7860000 		li	a3,32768
 234 0154 B387D700 		add	a5,a5,a3
 235              	.LVL16:
 236              	.L13:
  62:src/../h/_thread.hpp ****         this->context = { ra, sp };
 237              		.loc 2 62 9 is_stmt 1
 238              		.loc 2 62 23 is_stmt 0
 239 0158 23B8E400 		sd	a4,16(s1)
 240 015c 23BCF400 		sd	a5,24(s1)
  63:src/../h/_thread.hpp ****         this->timeSlice = DEFAULT_TIME_SLICE;
 241              		.loc 2 63 9 is_stmt 1
 242              		.loc 2 63 25 is_stmt 0
 243 0160 93072000 		li	a5,2
 244              	.LVL17:
 245 0164 23B4F402 		sd	a5,40(s1)
  64:src/../h/_thread.hpp ****         if (body != nullptr) { Scheduler::put(this); }
 246              		.loc 2 64 9 is_stmt 1
 247 0168 63000904 		beqz	s2,.L9
 248              		.loc 2 64 32
 249              		.loc 2 64 46 is_stmt 0
 250 016c 13850400 		mv	a0,s1
 251 0170 97000000 		call	_ZN9Scheduler3putEP7_thread@plt
 251      E7800000 
 252              	.LVL18:
 253              	.LEHE1:
 254 0178 6F000003 		j	.L9
 255              	.LVL19:
 256              	.L16:
  56:src/../h/_thread.hpp ****         if(body != nullptr)
 257              		.loc 2 56 16
 258 017c 13070000 		li	a4,0
 259 0180 6FF09FFC 		j	.L12
 260              	.LVL20:
 261              	.L17:
  59:src/../h/_thread.hpp ****         if(stack != nullptr)
 262              		.loc 2 59 16
 263 0184 93070000 		li	a5,0
 264 0188 6FF01FFD 		j	.L13
 265              	.LVL21:
 266              	.L18:
 267 018c 13090500 		mv	s2,a0
 268              	.LVL22:
GAS LISTING /tmp/ccJosttx.s 			page 8


 269              	.LBE6:
 270              	.LBE5:
  21:src/_thread.cpp **** }
 271              		.loc 1 21 46
 272 0190 13850400 		mv	a0,s1
 273 0194 97000000 		call	_ZdlPv@plt
 273      E7800000 
 274              	.LVL23:
 275 019c 13050900 		mv	a0,s2
 276              	.LEHB2:
 277 01a0 97000000 		call	_Unwind_Resume@plt
 277      E7800000 
 278              	.LVL24:
 279              	.LEHE2:
 280              	.L9:
  22:src/_thread.cpp **** void _thread::thread_dispatch() {
 281              		.loc 1 22 1
 282 01a8 13850400 		mv	a0,s1
 283 01ac 83308102 		ld	ra,40(sp)
 284              		.cfi_restore 1
 285 01b0 03340102 		ld	s0,32(sp)
 286              		.cfi_restore 8
 287              		.cfi_def_cfa 2, 48
 288 01b4 83348101 		ld	s1,24(sp)
 289              		.cfi_restore 9
 290              	.LVL25:
 291 01b8 03390101 		ld	s2,16(sp)
 292              		.cfi_restore 18
 293              	.LVL26:
 294 01bc 83398100 		ld	s3,8(sp)
 295              		.cfi_restore 19
 296              	.LVL27:
 297 01c0 033A0100 		ld	s4,0(sp)
 298              		.cfi_restore 20
 299              	.LVL28:
 300 01c4 13010103 		addi	sp,sp,48
 301              		.cfi_def_cfa_offset 0
 302 01c8 67800000 		jr	ra
 303              		.cfi_endproc
 304              	.LFE33:
 305              		.globl	__gxx_personality_v0
 306              		.section	.gcc_except_table,"a",@progbits
 307              	.LLSDA33:
 308 0000 FF       		.byte	0xff
 309 0001 FF       		.byte	0xff
 310 0002 03       		.byte	0x3
 311 0003 27       		.byte	0x27
 312 0004 00000000 		.4byte	.LEHB0-.LFB33
 313 0008 00000000 		.4byte	.LEHE0-.LEHB0
 314 000c 00000000 		.4byte	0
 315 0010 00       		.byte	0
 316 0011 00000000 		.4byte	.LEHB1-.LFB33
 317 0015 00000000 		.4byte	.LEHE1-.LEHB1
 318 0019 00000000 		.4byte	.L18-.LFB33
 319 001d 00       		.byte	0
 320 001e 00000000 		.4byte	.LEHB2-.LFB33
 321 0022 00000000 		.4byte	.LEHE2-.LEHB2
GAS LISTING /tmp/ccJosttx.s 			page 9


 322 0026 00000000 		.4byte	0
 323 002a 00       		.byte	0
 324              		.text
 326              		.align	2
 327              		.globl	_ZN7_thread15thread_dispatchEv
 329              	_ZN7_thread15thread_dispatchEv:
 330              	.LFB34:
  23:src/_thread.cpp ****     _thread *current = running;
 331              		.loc 1 23 33 is_stmt 1
 332              		.cfi_startproc
 333 01cc 130101FE 		addi	sp,sp,-32
 334              		.cfi_def_cfa_offset 32
 335 01d0 233C1100 		sd	ra,24(sp)
 336 01d4 23388100 		sd	s0,16(sp)
 337 01d8 23349100 		sd	s1,8(sp)
 338              		.cfi_offset 1, -8
 339              		.cfi_offset 8, -16
 340              		.cfi_offset 9, -24
 341 01dc 13040102 		addi	s0,sp,32
 342              		.cfi_def_cfa 8, 0
  24:src/_thread.cpp ****     if(current && current->state == 2){
 343              		.loc 1 24 5
  24:src/_thread.cpp ****     if(current && current->state == 2){
 344              		.loc 1 24 14 is_stmt 0
 345 01e0 97040000 		ld	s1,.LANCHOR0
 345      83B40400 
 346              	.LVL29:
  25:src/_thread.cpp ****         Scheduler::put(current);
 347              		.loc 1 25 5 is_stmt 1
 348 01e8 63880400 		beqz	s1,.L21
  25:src/_thread.cpp ****         Scheduler::put(current);
 349              		.loc 1 25 28 is_stmt 0 discriminator 1
 350 01ec 03B78403 		ld	a4,56(s1)
  25:src/_thread.cpp ****         Scheduler::put(current);
 351              		.loc 1 25 16 discriminator 1
 352 01f0 93072000 		li	a5,2
 353 01f4 630CF702 		beq	a4,a5,.L23
 354              	.L21:
  28:src/_thread.cpp ****     _thread::contextSwitch(&current->context, &running->context);
 355              		.loc 1 28 5 is_stmt 1
  28:src/_thread.cpp ****     _thread::contextSwitch(&current->context, &running->context);
 356              		.loc 1 28 29 is_stmt 0
 357 01f8 97000000 		call	_ZN9Scheduler3getEv@plt
 357      E7800000 
 358              	.LVL30:
  28:src/_thread.cpp ****     _thread::contextSwitch(&current->context, &running->context);
 359              		.loc 1 28 13
 360 0200 97070000 		sd	a0,.LANCHOR0,a5
 360      23B0A700 
  29:src/_thread.cpp **** }
 361              		.loc 1 29 5 is_stmt 1
  29:src/_thread.cpp **** }
 362              		.loc 1 29 27 is_stmt 0
 363 0208 93050501 		addi	a1,a0,16
 364 020c 13850401 		addi	a0,s1,16
 365 0210 97000000 		call	_ZN7_thread13contextSwitchEPNS_7ContextES1_@plt
 365      E7800000 
GAS LISTING /tmp/ccJosttx.s 			page 10


 366              	.LVL31:
  30:src/_thread.cpp **** 
 367              		.loc 1 30 1
 368 0218 83308101 		ld	ra,24(sp)
 369              		.cfi_remember_state
 370              		.cfi_restore 1
 371 021c 03340101 		ld	s0,16(sp)
 372              		.cfi_restore 8
 373              		.cfi_def_cfa 2, 32
 374 0220 83348100 		ld	s1,8(sp)
 375              		.cfi_restore 9
 376              	.LVL32:
 377 0224 13010102 		addi	sp,sp,32
 378              		.cfi_def_cfa_offset 0
 379 0228 67800000 		jr	ra
 380              	.LVL33:
 381              	.L23:
 382              		.cfi_restore_state
  26:src/_thread.cpp ****     }
 383              		.loc 1 26 9 is_stmt 1
  26:src/_thread.cpp ****     }
 384              		.loc 1 26 23 is_stmt 0
 385 022c 13850400 		mv	a0,s1
 386 0230 97000000 		call	_ZN9Scheduler3putEP7_thread@plt
 386      E7800000 
 387              	.LVL34:
 388 0238 6FF01FFC 		j	.L21
 389              		.cfi_endproc
 390              	.LFE34:
 392              		.align	2
 393              		.globl	_ZN7_thread11thread_exitEv
 395              	_ZN7_thread11thread_exitEv:
 396              	.LFB36:
  45:src/_thread.cpp **** 
  46:src/_thread.cpp **** int _thread::thread_exit() {
 397              		.loc 1 46 28 is_stmt 1
 398              		.cfi_startproc
 399 023c 130101FF 		addi	sp,sp,-16
 400              		.cfi_def_cfa_offset 16
 401 0240 23341100 		sd	ra,8(sp)
 402 0244 23308100 		sd	s0,0(sp)
 403              		.cfi_offset 1, -8
 404              		.cfi_offset 8, -16
 405 0248 13040101 		addi	s0,sp,16
 406              		.cfi_def_cfa 8, 0
  47:src/_thread.cpp ****    running->state = 4;
 407              		.loc 1 47 4
 408              		.loc 1 47 19 is_stmt 0
 409 024c 97070000 		ld	a5,.LANCHOR0
 409      83B70700 
 410 0254 13074000 		li	a4,4
 411 0258 23BCE702 		sd	a4,56(a5)
  48:src/_thread.cpp ****    thread_dispatch();
 412              		.loc 1 48 4 is_stmt 1
 413              		.loc 1 48 19 is_stmt 0
 414 025c 97000000 		call	_ZN7_thread15thread_dispatchEv
 414      E7800000 
GAS LISTING /tmp/ccJosttx.s 			page 11


 415              	.LVL35:
  49:src/_thread.cpp ****    return 0;
 416              		.loc 1 49 4 is_stmt 1
  50:src/_thread.cpp **** }
 417              		.loc 1 50 1 is_stmt 0
 418 0264 13050000 		li	a0,0
 419 0268 83308100 		ld	ra,8(sp)
 420              		.cfi_restore 1
 421 026c 03340100 		ld	s0,0(sp)
 422              		.cfi_restore 8
 423              		.cfi_def_cfa 2, 16
 424 0270 13010101 		addi	sp,sp,16
 425              		.cfi_def_cfa_offset 0
 426 0274 67800000 		jr	ra
 427              		.cfi_endproc
 428              	.LFE36:
 430              		.globl	_ZN7_thread7runningE
 431              		.bss
 432              		.align	3
 433              		.set	.LANCHOR0,. + 0
 436              	_ZN7_thread7runningE:
 437 0000 00000000 		.zero	8
 437      00000000 
 438              		.text
 439              	.Letext0:
 440              		.file 3 "src/../h/../lib/hw.h"
 441              		.file 4 "src/../h/MemoryAllocator.hpp"
 442              		.file 5 "src/../h/../h/scheduler.hpp"
 443              		.file 6 "src/../h/../h/syscall_c.hpp"
 444              		.file 7 "src/../h/riscv.hpp"
 445              		.file 8 "src/../h/../lib/console.h"
 446              		.file 9 "src/../h/../h/syscall_cpp.hpp"
 2862              		.align	3
 2865              	DW.ref.__gxx_personality_v0:
 2866 0000 00000000 		.dword	__gxx_personality_v0
 2866      00000000 
 2867              		.ident	"GCC: (Ubuntu 9.4.0-1ubuntu1~20.04) 9.4.0"
 2868              		.section	.note.GNU-stack,"",@progbits
GAS LISTING /tmp/ccJosttx.s 			page 12


DEFINED SYMBOLS
                            *ABS*:0000000000000000 _thread.cpp
     /tmp/ccJosttx.s:9      .text:0000000000000000 _ZN7_thread14thread_wrapperEv
     /tmp/ccJosttx.s:13     .text:0000000000000000 .L0 
     /tmp/ccJosttx.s:14     .text:0000000000000000 .L0 
     /tmp/ccJosttx.s:15     .text:0000000000000004 .L0 
     /tmp/ccJosttx.s:18     .text:000000000000000c .L0 
     /tmp/ccJosttx.s:19     .text:000000000000000c .L0 
     /tmp/ccJosttx.s:21     .text:0000000000000010 .L0 
     /tmp/ccJosttx.s:23     .text:0000000000000010 .L0 
     /tmp/ccJosttx.s:24     .text:0000000000000010 .L0 
     /tmp/ccJosttx.s:27     .text:0000000000000018 .L0 
     /tmp/ccJosttx.s:28     .text:0000000000000018 .L0 
     /tmp/ccJosttx.s:30     .text:0000000000000020 .L0 
     /tmp/ccJosttx.s:33     .text:0000000000000028 .L0 
     /tmp/ccJosttx.s:34     .text:0000000000000028 .L0 
     /tmp/ccJosttx.s:36     .text:000000000000002c .L0 
     /tmp/ccJosttx.s:38     .text:0000000000000030 .L0 
     /tmp/ccJosttx.s:39     .text:0000000000000030 .L0 
     /tmp/ccJosttx.s:44     .text:0000000000000038 .L0 
     /tmp/ccJosttx.s:45     .text:0000000000000038 .L0 
     /tmp/ccJosttx.s:49     .text:0000000000000048 .L0 
     /tmp/ccJosttx.s:50     .text:000000000000004c .L0 
     /tmp/ccJosttx.s:51     .text:000000000000004c .L0 
     /tmp/ccJosttx.s:53     .text:0000000000000050 .L0 
     /tmp/ccJosttx.s:54     .text:0000000000000050 .L0 
     /tmp/ccJosttx.s:56     .text:0000000000000054 .L0 
     /tmp/ccJosttx.s:59     .text:0000000000000058 .L0 
     /tmp/ccJosttx.s:61     .text:0000000000000058 .L0 
     /tmp/ccJosttx.s:62     .text:0000000000000058 .L0 
     /tmp/ccJosttx.s:64     .text:000000000000005c .L0 
     /tmp/ccJosttx.s:67     .text:0000000000000064 .L0 
     /tmp/ccJosttx.s:70     .text:000000000000006c .L0 
     /tmp/ccJosttx.s:76     .text:000000000000006c _Znam
     /tmp/ccJosttx.s:79     .text:000000000000006c .L0 
     /tmp/ccJosttx.s:81     .text:000000000000006c .L0 
     /tmp/ccJosttx.s:82     .text:0000000000000070 .L0 
     /tmp/ccJosttx.s:85     .text:0000000000000078 .L0 
     /tmp/ccJosttx.s:86     .text:0000000000000078 .L0 
     /tmp/ccJosttx.s:88     .text:000000000000007c .L0 
     /tmp/ccJosttx.s:90     .text:000000000000007c .L0 
     /tmp/ccJosttx.s:91     .text:000000000000007c .L0 
     /tmp/ccJosttx.s:94     .text:0000000000000084 .L0 
     /tmp/ccJosttx.s:95     .text:0000000000000088 .L0 
     /tmp/ccJosttx.s:97     .text:000000000000008c .L0 
     /tmp/ccJosttx.s:98     .text:000000000000008c .L0 
     /tmp/ccJosttx.s:100    .text:0000000000000090 .L0 
     /tmp/ccJosttx.s:102    .text:0000000000000094 .L0 
     /tmp/ccJosttx.s:108    .text:0000000000000094 _ZdaPv
     /tmp/ccJosttx.s:111    .text:0000000000000094 .L0 
     /tmp/ccJosttx.s:113    .text:0000000000000094 .L0 
     /tmp/ccJosttx.s:114    .text:0000000000000098 .L0 
     /tmp/ccJosttx.s:117    .text:00000000000000a0 .L0 
     /tmp/ccJosttx.s:118    .text:00000000000000a0 .L0 
     /tmp/ccJosttx.s:120    .text:00000000000000a4 .L0 
     /tmp/ccJosttx.s:122    .text:00000000000000a4 .L0 
     /tmp/ccJosttx.s:123    .text:00000000000000a4 .L0 
GAS LISTING /tmp/ccJosttx.s 			page 13


     /tmp/ccJosttx.s:126    .text:00000000000000ac .L0 
     /tmp/ccJosttx.s:127    .text:00000000000000b0 .L0 
     /tmp/ccJosttx.s:129    .text:00000000000000b4 .L0 
     /tmp/ccJosttx.s:130    .text:00000000000000b4 .L0 
     /tmp/ccJosttx.s:132    .text:00000000000000b8 .L0 
     /tmp/ccJosttx.s:134    .text:00000000000000bc .L0 
     /tmp/ccJosttx.s:140    .text:00000000000000bc _ZN7_thread13thread_createEPFvPvES0_S0_
     /tmp/ccJosttx.s:143    .text:00000000000000bc .L0 
     /tmp/ccJosttx.s:2865   .data.rel.local.DW.ref.__gxx_personality_v0:0000000000000000 DW.ref.__gxx_personality_v0
     /tmp/ccJosttx.s:147    .text:00000000000000bc .L0 
     /tmp/ccJosttx.s:148    .text:00000000000000c0 .L0 
     /tmp/ccJosttx.s:155    .text:00000000000000d8 .L0 
     /tmp/ccJosttx.s:156    .text:00000000000000d8 .L0 
     /tmp/ccJosttx.s:157    .text:00000000000000d8 .L0 
     /tmp/ccJosttx.s:158    .text:00000000000000d8 .L0 
     /tmp/ccJosttx.s:159    .text:00000000000000d8 .L0 
     /tmp/ccJosttx.s:160    .text:00000000000000d8 .L0 
     /tmp/ccJosttx.s:162    .text:00000000000000dc .L0 
     /tmp/ccJosttx.s:167    .text:00000000000000e8 .L0 
     /tmp/ccJosttx.s:168    .text:00000000000000e8 .L0 
     /tmp/ccJosttx.s:174    .text:00000000000000f4 .L0 
     /tmp/ccJosttx.s:175    .text:00000000000000f4 .L0 
     /tmp/ccJosttx.s:185    .text:0000000000000104 .L0 
     /tmp/ccJosttx.s:186    .text:0000000000000104 .L0 
     /tmp/ccJosttx.s:188    .text:0000000000000108 .L0 
     /tmp/ccJosttx.s:189    .text:0000000000000108 .L0 
     /tmp/ccJosttx.s:191    .text:000000000000010c .L0 
     /tmp/ccJosttx.s:193    .text:0000000000000110 .L0 
     /tmp/ccJosttx.s:194    .text:0000000000000110 .L0 
     /tmp/ccJosttx.s:196    .text:0000000000000114 .L0 
     /tmp/ccJosttx.s:197    .text:0000000000000114 .L0 
     /tmp/ccJosttx.s:204    .text:0000000000000124 .L0 
     /tmp/ccJosttx.s:205    .text:0000000000000124 .L0 
     /tmp/ccJosttx.s:207    .text:0000000000000128 .L0 
     /tmp/ccJosttx.s:208    .text:0000000000000128 .L0 
     /tmp/ccJosttx.s:213    .text:0000000000000134 .L0 
     /tmp/ccJosttx.s:214    .text:0000000000000134 .L0 
     /tmp/ccJosttx.s:218    .text:000000000000013c .L0 
     /tmp/ccJosttx.s:219    .text:000000000000013c .L0 
     /tmp/ccJosttx.s:221    .text:0000000000000140 .L0 
     /tmp/ccJosttx.s:222    .text:0000000000000140 .L0 
     /tmp/ccJosttx.s:226    .text:0000000000000148 .L0 
     /tmp/ccJosttx.s:227    .text:0000000000000148 .L0 
     /tmp/ccJosttx.s:228    .text:0000000000000148 .L0 
     /tmp/ccJosttx.s:230    .text:000000000000014c .L0 
     /tmp/ccJosttx.s:232    .text:0000000000000150 .L0 
     /tmp/ccJosttx.s:233    .text:0000000000000150 .L0 
     /tmp/ccJosttx.s:238    .text:0000000000000158 .L0 
     /tmp/ccJosttx.s:239    .text:0000000000000158 .L0 
     /tmp/ccJosttx.s:242    .text:0000000000000160 .L0 
     /tmp/ccJosttx.s:243    .text:0000000000000160 .L0 
     /tmp/ccJosttx.s:247    .text:0000000000000168 .L0 
     /tmp/ccJosttx.s:249    .text:000000000000016c .L0 
     /tmp/ccJosttx.s:250    .text:000000000000016c .L0 
     /tmp/ccJosttx.s:258    .text:000000000000017c .L0 
     /tmp/ccJosttx.s:263    .text:0000000000000184 .L0 
     /tmp/ccJosttx.s:272    .text:0000000000000190 .L0 
GAS LISTING /tmp/ccJosttx.s 			page 14


     /tmp/ccJosttx.s:282    .text:00000000000001a8 .L0 
     /tmp/ccJosttx.s:284    .text:00000000000001b0 .L0 
     /tmp/ccJosttx.s:286    .text:00000000000001b4 .L0 
     /tmp/ccJosttx.s:287    .text:00000000000001b4 .L0 
     /tmp/ccJosttx.s:289    .text:00000000000001b8 .L0 
     /tmp/ccJosttx.s:292    .text:00000000000001bc .L0 
     /tmp/ccJosttx.s:295    .text:00000000000001c0 .L0 
     /tmp/ccJosttx.s:298    .text:00000000000001c4 .L0 
     /tmp/ccJosttx.s:301    .text:00000000000001c8 .L0 
     /tmp/ccJosttx.s:303    .text:00000000000001cc .L0 
     /tmp/ccJosttx.s:329    .text:00000000000001cc _ZN7_thread15thread_dispatchEv
     /tmp/ccJosttx.s:332    .text:00000000000001cc .L0 
     /tmp/ccJosttx.s:333    .text:00000000000001cc .L0 
     /tmp/ccJosttx.s:334    .text:00000000000001d0 .L0 
     /tmp/ccJosttx.s:338    .text:00000000000001dc .L0 
     /tmp/ccJosttx.s:339    .text:00000000000001dc .L0 
     /tmp/ccJosttx.s:340    .text:00000000000001dc .L0 
     /tmp/ccJosttx.s:342    .text:00000000000001e0 .L0 
     /tmp/ccJosttx.s:344    .text:00000000000001e0 .L0 
     /tmp/ccJosttx.s:345    .text:00000000000001e0 .L0 
     /tmp/ccJosttx.s:348    .text:00000000000001e8 .L0 
     /tmp/ccJosttx.s:350    .text:00000000000001ec .L0 
     /tmp/ccJosttx.s:352    .text:00000000000001f0 .L0 
     /tmp/ccJosttx.s:356    .text:00000000000001f8 .L0 
     /tmp/ccJosttx.s:357    .text:00000000000001f8 .L0 
     /tmp/ccJosttx.s:360    .text:0000000000000200 .L0 
     /tmp/ccJosttx.s:362    .text:0000000000000208 .L0 
     /tmp/ccJosttx.s:363    .text:0000000000000208 .L0 
     /tmp/ccJosttx.s:368    .text:0000000000000218 .L0 
     /tmp/ccJosttx.s:369    .text:000000000000021c .L0 
     /tmp/ccJosttx.s:370    .text:000000000000021c .L0 
     /tmp/ccJosttx.s:372    .text:0000000000000220 .L0 
     /tmp/ccJosttx.s:373    .text:0000000000000220 .L0 
     /tmp/ccJosttx.s:375    .text:0000000000000224 .L0 
     /tmp/ccJosttx.s:378    .text:0000000000000228 .L0 
     /tmp/ccJosttx.s:382    .text:000000000000022c .L0 
     /tmp/ccJosttx.s:384    .text:000000000000022c .L0 
     /tmp/ccJosttx.s:385    .text:000000000000022c .L0 
     /tmp/ccJosttx.s:389    .text:000000000000023c .L0 
     /tmp/ccJosttx.s:395    .text:000000000000023c _ZN7_thread11thread_exitEv
     /tmp/ccJosttx.s:398    .text:000000000000023c .L0 
     /tmp/ccJosttx.s:399    .text:000000000000023c .L0 
     /tmp/ccJosttx.s:400    .text:0000000000000240 .L0 
     /tmp/ccJosttx.s:403    .text:0000000000000248 .L0 
     /tmp/ccJosttx.s:404    .text:0000000000000248 .L0 
     /tmp/ccJosttx.s:406    .text:000000000000024c .L0 
     /tmp/ccJosttx.s:408    .text:000000000000024c .L0 
     /tmp/ccJosttx.s:409    .text:000000000000024c .L0 
     /tmp/ccJosttx.s:413    .text:000000000000025c .L0 
     /tmp/ccJosttx.s:414    .text:000000000000025c .L0 
     /tmp/ccJosttx.s:417    .text:0000000000000264 .L0 
     /tmp/ccJosttx.s:418    .text:0000000000000264 .L0 
     /tmp/ccJosttx.s:420    .text:000000000000026c .L0 
     /tmp/ccJosttx.s:422    .text:0000000000000270 .L0 
     /tmp/ccJosttx.s:423    .text:0000000000000270 .L0 
     /tmp/ccJosttx.s:425    .text:0000000000000274 .L0 
     /tmp/ccJosttx.s:427    .text:0000000000000278 .L0 
GAS LISTING /tmp/ccJosttx.s 			page 15


     /tmp/ccJosttx.s:436    .bss:0000000000000000 _ZN7_thread7runningE
     /tmp/ccJosttx.s:433    .bss:0000000000000000 .LANCHOR0
     /tmp/ccJosttx.s:447    .text:0000000000000278 .L0 
     /tmp/ccJosttx.s:28     .text:0000000000000018 .L0 
     /tmp/ccJosttx.s:45     .text:0000000000000038 .L0 
     /tmp/ccJosttx.s:222    .text:0000000000000140 .L0 
     /tmp/ccJosttx.s:345    .text:00000000000001e0 .L0 
     /tmp/ccJosttx.s:360    .text:0000000000000200 .L0 
     /tmp/ccJosttx.s:409    .text:000000000000024c .L0 
     /tmp/ccJosttx.s:58     .text:0000000000000058 .L2
     /tmp/ccJosttx.s:42     .text:0000000000000038 .L3
     /tmp/ccJosttx.s:202    .text:0000000000000124 .L10
     /tmp/ccJosttx.s:211    .text:0000000000000134 .L11
     /tmp/ccJosttx.s:256    .text:000000000000017c .L16
     /tmp/ccJosttx.s:261    .text:0000000000000184 .L17
     /tmp/ccJosttx.s:280    .text:00000000000001a8 .L9
     /tmp/ccJosttx.s:224    .text:0000000000000148 .L12
     /tmp/ccJosttx.s:236    .text:0000000000000158 .L13
     /tmp/ccJosttx.s:354    .text:00000000000001f8 .L21
     /tmp/ccJosttx.s:381    .text:000000000000022c .L23
     /tmp/ccJosttx.s:170    .text:00000000000000ec .LEHB0
     /tmp/ccJosttx.s:141    .text:00000000000000bc .LFB33
     /tmp/ccJosttx.s:178    .text:0000000000000100 .LEHE0
     /tmp/ccJosttx.s:198    .text:0000000000000118 .LEHB1
     /tmp/ccJosttx.s:253    .text:0000000000000178 .LEHE1
     /tmp/ccJosttx.s:266    .text:000000000000018c .L18
     /tmp/ccJosttx.s:276    .text:00000000000001a0 .LEHB2
     /tmp/ccJosttx.s:279    .text:00000000000001a8 .LEHE2
     /tmp/ccJosttx.s:1480   .debug_abbrev:0000000000000000 .Ldebug_abbrev0
     /tmp/ccJosttx.s:2803   .debug_str:00000000000005d8 .LASF107
     /tmp/ccJosttx.s:2829   .debug_str:000000000000076c .LASF108
     /tmp/ccJosttx.s:2645   .debug_str:00000000000000ff .LASF109
     /tmp/ccJosttx.s:5      .text:0000000000000000 .Ltext0
     /tmp/ccJosttx.s:439    .text:0000000000000278 .Letext0
     /tmp/ccJosttx.s:2605   .debug_line:0000000000000000 .Ldebug_line0
     /tmp/ccJosttx.s:2733   .debug_str:00000000000003ea .LASF0
     /tmp/ccJosttx.s:2749   .debug_str:000000000000045f .LASF1
     /tmp/ccJosttx.s:2721   .debug_str:0000000000000378 .LASF2
     /tmp/ccJosttx.s:2697   .debug_str:0000000000000295 .LASF4
     /tmp/ccJosttx.s:2783   .debug_str:0000000000000543 .LASF3
     /tmp/ccJosttx.s:2631   .debug_str:000000000000008f .LASF5
     /tmp/ccJosttx.s:2751   .debug_str:0000000000000472 .LASF6
     /tmp/ccJosttx.s:2731   .debug_str:00000000000003d7 .LASF7
     /tmp/ccJosttx.s:2825   .debug_str:0000000000000744 .LASF8
     /tmp/ccJosttx.s:2683   .debug_str:000000000000022a .LASF9
     /tmp/ccJosttx.s:2763   .debug_str:00000000000004d5 .LASF10
     /tmp/ccJosttx.s:2807   .debug_str:00000000000006a6 .LASF11
     /tmp/ccJosttx.s:2633   .debug_str:0000000000000096 .LASF12
     /tmp/ccJosttx.s:2613   .debug_str:0000000000000023 .LASF13
     /tmp/ccJosttx.s:2637   .debug_str:00000000000000b0 .LASF14
     /tmp/ccJosttx.s:2775   .debug_str:000000000000050b .LASF15
     /tmp/ccJosttx.s:2647   .debug_str:0000000000000122 .LASF16
     /tmp/ccJosttx.s:2735   .debug_str:00000000000003f7 .LASF110
     /tmp/ccJosttx.s:2799   .debug_str:00000000000005c7 .LASF17
     /tmp/ccJosttx.s:2839   .debug_str:00000000000007b1 .LASF18
     /tmp/ccJosttx.s:2851   .debug_str:0000000000000810 .LASF19
     /tmp/ccJosttx.s:2717   .debug_str:000000000000035d .LASF26
GAS LISTING /tmp/ccJosttx.s 			page 16


     /tmp/ccJosttx.s:2785   .debug_str:0000000000000555 .LASF20
     /tmp/ccJosttx.s:2795   .debug_str:0000000000000592 .LASF22
     /tmp/ccJosttx.s:2765   .debug_str:00000000000004e4 .LASF21
     /tmp/ccJosttx.s:2681   .debug_str:0000000000000209 .LASF23
     /tmp/ccJosttx.s:2719   .debug_str:000000000000036d .LASF32
     /tmp/ccJosttx.s:2845   .debug_str:00000000000007cf .LASF34
     /tmp/ccJosttx.s:2625   .debug_str:0000000000000072 .LASF24
     /tmp/ccJosttx.s:2809   .debug_str:00000000000006b5 .LASF25
     /tmp/ccJosttx.s:2759   .debug_str:00000000000004b6 .LASF27
     /tmp/ccJosttx.s:2831   .debug_str:000000000000077c .LASF28
     /tmp/ccJosttx.s:2693   .debug_str:0000000000000279 .LASF111
     /tmp/ccJosttx.s:2819   .debug_str:000000000000070b .LASF112
     /tmp/ccJosttx.s:2705   .debug_str:00000000000002d9 .LASF56
     /tmp/ccJosttx.s:2695   .debug_str:000000000000028d .LASF29
     /tmp/ccJosttx.s:2619   .debug_str:0000000000000042 .LASF113
     /tmp/ccJosttx.s:2677   .debug_str:00000000000001f8 .LASF30
     /tmp/ccJosttx.s:2663   .debug_str:0000000000000196 .LASF31
     /tmp/ccJosttx.s:2641   .debug_str:00000000000000d0 .LASF33
     /tmp/ccJosttx.s:2643   .debug_str:00000000000000e0 .LASF35
     /tmp/ccJosttx.s:2621   .debug_str:000000000000004a .LASF36
     /tmp/ccJosttx.s:2673   .debug_str:00000000000001d5 .LASF66
     /tmp/ccJosttx.s:2651   .debug_str:0000000000000148 .LASF37
     /tmp/ccJosttx.s:2723   .debug_str:0000000000000386 .LASF38
     /tmp/ccJosttx.s:2769   .debug_str:00000000000004f4 .LASF114
     /tmp/ccJosttx.s:2853   .debug_str:0000000000000815 .LASF39
     /tmp/ccJosttx.s:2745   .debug_str:000000000000042e .LASF40
     /tmp/ccJosttx.s:2801   .debug_str:00000000000005cc .LASF41
     /tmp/ccJosttx.s:2813   .debug_str:00000000000006cc .LASF43
     /tmp/ccJosttx.s:2835   .debug_str:0000000000000796 .LASF42
     /tmp/ccJosttx.s:2715   .debug_str:0000000000000331 .LASF44
     /tmp/ccJosttx.s:2811   .debug_str:00000000000006c3 .LASF45
     /tmp/ccJosttx.s:2753   .debug_str:0000000000000485 .LASF46
     /tmp/ccJosttx.s:2741   .debug_str:000000000000040b .LASF47
     /tmp/ccJosttx.s:2823   .debug_str:000000000000073b .LASF48
     /tmp/ccJosttx.s:2661   .debug_str:0000000000000191 .LASF49
     /tmp/ccJosttx.s:2709   .debug_str:00000000000002f2 .LASF50
     /tmp/ccJosttx.s:2737   .debug_str:0000000000000400 .LASF51
     /tmp/ccJosttx.s:2805   .debug_str:000000000000069c .LASF52
     /tmp/ccJosttx.s:2739   .debug_str:0000000000000406 .LASF53
     /tmp/ccJosttx.s:2627   .debug_str:000000000000007b .LASF54
     /tmp/ccJosttx.s:2607   .debug_str:0000000000000000 .LASF55
     /tmp/ccJosttx.s:2815   .debug_str:00000000000006e9 .LASF57
     /tmp/ccJosttx.s:2787   .debug_str:000000000000055f .LASF58
     /tmp/ccJosttx.s:2771   .debug_str:00000000000004f9 .LASF59
     /tmp/ccJosttx.s:2855   .debug_str:0000000000000824 .LASF60
     /tmp/ccJosttx.s:2629   .debug_str:0000000000000081 .LASF61
     /tmp/ccJosttx.s:2729   .debug_str:00000000000003bc .LASF62
     /tmp/ccJosttx.s:2669   .debug_str:00000000000001b0 .LASF63
     /tmp/ccJosttx.s:2755   .debug_str:0000000000000495 .LASF64
     /tmp/ccJosttx.s:2615   .debug_str:0000000000000033 .LASF65
     /tmp/ccJosttx.s:2761   .debug_str:00000000000004c0 .LASF67
     /tmp/ccJosttx.s:2659   .debug_str:0000000000000188 .LASF68
     /tmp/ccJosttx.s:2703   .debug_str:00000000000002c4 .LASF69
     /tmp/ccJosttx.s:2725   .debug_str:00000000000003ae .LASF70
     /tmp/ccJosttx.s:2847   .debug_str:00000000000007f2 .LASF71
     /tmp/ccJosttx.s:2793   .debug_str:000000000000058b .LASF72
     /tmp/ccJosttx.s:2789   .debug_str:0000000000000565 .LASF73
GAS LISTING /tmp/ccJosttx.s 			page 17


     /tmp/ccJosttx.s:2675   .debug_str:00000000000001f0 .LASF74
     /tmp/ccJosttx.s:2821   .debug_str:0000000000000727 .LASF75
     /tmp/ccJosttx.s:2609   .debug_str:0000000000000009 .LASF76
     /tmp/ccJosttx.s:2639   .debug_str:00000000000000bc .LASF77
     /tmp/ccJosttx.s:2665   .debug_str:000000000000019e .LASF78
     /tmp/ccJosttx.s:2797   .debug_str:00000000000005b3 .LASF79
     /tmp/ccJosttx.s:2689   .debug_str:0000000000000262 .LASF80
     /tmp/ccJosttx.s:2841   .debug_str:00000000000007b6 .LASF81
     /tmp/ccJosttx.s:2767   .debug_str:00000000000004ed .LASF82
     /tmp/ccJosttx.s:2791   .debug_str:0000000000000578 .LASF83
     /tmp/ccJosttx.s:2757   .debug_str:00000000000004af .LASF84
     /tmp/ccJosttx.s:2747   .debug_str:000000000000044c .LASF85
     /tmp/ccJosttx.s:2679   .debug_str:0000000000000203 .LASF86
     /tmp/ccJosttx.s:2687   .debug_str:0000000000000250 .LASF87
     /tmp/ccJosttx.s:2657   .debug_str:0000000000000182 .LASF88
     /tmp/ccJosttx.s:2611   .debug_str:0000000000000011 .LASF89
     /tmp/ccJosttx.s:2849   .debug_str:0000000000000805 .LASF90
     /tmp/ccJosttx.s:2671   .debug_str:00000000000001bd .LASF91
     /tmp/ccJosttx.s:2707   .debug_str:00000000000002e7 .LASF92
     /tmp/ccJosttx.s:2685   .debug_str:0000000000000238 .LASF93
     /tmp/ccJosttx.s:2635   .debug_str:00000000000000a6 .LASF94
     /tmp/ccJosttx.s:2655   .debug_str:000000000000016c .LASF95
     /tmp/ccJosttx.s:2667   .debug_str:00000000000001a6 .LASF96
     /tmp/ccJosttx.s:2653   .debug_str:0000000000000156 .LASF97
     /tmp/ccJosttx.s:2857   .debug_str:000000000000083c .LASF98
     /tmp/ccJosttx.s:2623   .debug_str:0000000000000056 .LASF99
     /tmp/ccJosttx.s:2699   .debug_str:000000000000029c .LASF115
     /tmp/ccJosttx.s:2711   .debug_str:00000000000002fa .LASF116
     /tmp/ccJosttx.s:2713   .debug_str:000000000000031c .LASF117
     /tmp/ccJosttx.s:396    .text:000000000000023c .LFB36
     /tmp/ccJosttx.s:428    .text:0000000000000278 .LFE36
     /tmp/ccJosttx.s:415    .text:0000000000000264 .LVL35
     /tmp/ccJosttx.s:10     .text:0000000000000000 .LFB35
     /tmp/ccJosttx.s:71     .text:000000000000006c .LFE35
     /tmp/ccJosttx.s:25     .text:0000000000000018 .LVL0
     /tmp/ccJosttx.s:330    .text:00000000000001cc .LFB34
     /tmp/ccJosttx.s:390    .text:000000000000023c .LFE34
     /tmp/ccJosttx.s:2743   .debug_str:0000000000000426 .LASF100
     /tmp/ccJosttx.s:2381   .debug_loc:0000000000000000 .LLST11
     /tmp/ccJosttx.s:358    .text:0000000000000200 .LVL30
     /tmp/ccJosttx.s:366    .text:0000000000000218 .LVL31
     /tmp/ccJosttx.s:387    .text:0000000000000238 .LVL34
     /tmp/ccJosttx.s:304    .text:00000000000001cc .LFE33
     /tmp/ccJosttx.s:2392   .debug_loc:0000000000000036 .LLST2
     /tmp/ccJosttx.s:2421   .debug_loc:00000000000000ab .LLST3
     /tmp/ccJosttx.s:2779   .debug_str:0000000000000531 .LASF101
     /tmp/ccJosttx.s:2439   .debug_loc:00000000000000f7 .LLST4
     /tmp/ccJosttx.s:181    .text:0000000000000104 .LBB5
     /tmp/ccJosttx.s:270    .text:0000000000000190 .LBE5
     /tmp/ccJosttx.s:2457   .debug_loc:0000000000000143 .LLST5
     /tmp/ccJosttx.s:2471   .debug_loc:000000000000017c .LLST6
     /tmp/ccJosttx.s:2485   .debug_loc:00000000000001b5 .LLST7
     /tmp/ccJosttx.s:2510   .debug_loc:0000000000000217 .LLST8
     /tmp/ccJosttx.s:182    .text:0000000000000104 .LBB6
     /tmp/ccJosttx.s:269    .text:0000000000000190 .LBE6
     /tmp/ccJosttx.s:2521   .debug_loc:000000000000024d .LLST9
     /tmp/ccJosttx.s:2542   .debug_loc:00000000000002ab .LLST10
GAS LISTING /tmp/ccJosttx.s 			page 18


     /tmp/ccJosttx.s:200    .text:0000000000000120 .LVL12
     /tmp/ccJosttx.s:210    .text:0000000000000134 .LVL13
     /tmp/ccJosttx.s:252    .text:0000000000000178 .LVL18
     /tmp/ccJosttx.s:172    .text:00000000000000f4 .LVL9
     /tmp/ccJosttx.s:177    .text:0000000000000100 .LVL10
     /tmp/ccJosttx.s:274    .text:000000000000019c .LVL23
     /tmp/ccJosttx.s:278    .text:00000000000001a8 .LVL24
     /tmp/ccJosttx.s:2701   .debug_str:00000000000002b1 .LASF118
     /tmp/ccJosttx.s:2781   .debug_str:000000000000053c .LASF119
     /tmp/ccJosttx.s:109    .text:0000000000000094 .LFB32
     /tmp/ccJosttx.s:135    .text:00000000000000bc .LFE32
     /tmp/ccJosttx.s:2564   .debug_loc:000000000000030a .LLST1
     /tmp/ccJosttx.s:124    .text:00000000000000ac .LVL6
     /tmp/ccJosttx.s:2777   .debug_str:0000000000000521 .LASF120
     /tmp/ccJosttx.s:2833   .debug_str:0000000000000790 .LASF121
     /tmp/ccJosttx.s:77     .text:000000000000006c .LFB31
     /tmp/ccJosttx.s:103    .text:0000000000000094 .LFE31
     /tmp/ccJosttx.s:2578   .debug_loc:0000000000000343 .LLST0
     /tmp/ccJosttx.s:92     .text:0000000000000084 .LVL4
     /tmp/ccJosttx.s:2843   .debug_str:00000000000007ca .LASF122
     /tmp/ccJosttx.s:2817   .debug_str:00000000000006f0 .LASF123
     /tmp/ccJosttx.s:2773   .debug_str:0000000000000504 .LASF102
     /tmp/ccJosttx.s:2617   .debug_str:000000000000003c .LASF103
     /tmp/ccJosttx.s:2837   .debug_str:00000000000007a4 .LASF104
     /tmp/ccJosttx.s:2727   .debug_str:00000000000003b5 .LASF105
     /tmp/ccJosttx.s:2649   .debug_str:0000000000000138 .LASF106
     /tmp/ccJosttx.s:2691   .debug_str:000000000000026a .LASF124
     /tmp/ccJosttx.s:2827   .debug_str:0000000000000754 .LASF125
     /tmp/ccJosttx.s:346    .text:00000000000001e8 .LVL29
     /tmp/ccJosttx.s:376    .text:0000000000000224 .LVL32
     /tmp/ccJosttx.s:380    .text:000000000000022c .LVL33
     /tmp/ccJosttx.s:146    .text:00000000000000bc .LVL7
     /tmp/ccJosttx.s:169    .text:00000000000000ec .LVL8
     /tmp/ccJosttx.s:268    .text:0000000000000190 .LVL22
     /tmp/ccJosttx.s:293    .text:00000000000001bc .LVL26
     /tmp/ccJosttx.s:296    .text:00000000000001c0 .LVL27
     /tmp/ccJosttx.s:299    .text:00000000000001c4 .LVL28
     /tmp/ccJosttx.s:180    .text:0000000000000104 .LVL11
     /tmp/ccJosttx.s:290    .text:00000000000001b8 .LVL25
     /tmp/ccJosttx.s:217    .text:000000000000013c .LVL14
     /tmp/ccJosttx.s:223    .text:0000000000000148 .LVL15
     /tmp/ccJosttx.s:255    .text:000000000000017c .LVL19
     /tmp/ccJosttx.s:260    .text:0000000000000184 .LVL20
     /tmp/ccJosttx.s:265    .text:000000000000018c .LVL21
     /tmp/ccJosttx.s:235    .text:0000000000000158 .LVL16
     /tmp/ccJosttx.s:244    .text:0000000000000164 .LVL17
     /tmp/ccJosttx.s:112    .text:0000000000000094 .LVL5
     /tmp/ccJosttx.s:80     .text:000000000000006c .LVL3
     /tmp/ccJosttx.s:448    .debug_info:0000000000000000 .Ldebug_info0
     /tmp/ccJosttx.s:307    .gcc_except_table:0000000000000000 .LLSDA33

UNDEFINED SYMBOLS
_ZN5riscv10popSppSpieEv
_ZN15MemoryAllocator9mem_allocEm
_ZN15MemoryAllocator8mem_freeEPv
__putc
_Znwm
GAS LISTING /tmp/ccJosttx.s 			page 19


_ZN9Scheduler3putEP7_thread
_ZdlPv
_Unwind_Resume
__gxx_personality_v0
_ZN9Scheduler3getEv
_ZN7_thread13contextSwitchEPNS_7ContextES1_
