GAS LISTING /tmp/ccbQ4zQV.s 			page 1


   1              		.file	"syscall_c.cpp"
   2              		.option pic
   3              		.option norelax
   4              		.text
   5              	.Ltext0:
   6              		.align	2
   7              		.globl	_Z13callOperationm
   9              	_Z13callOperationm:
  10              	.LFB15:
  11              		.file 1 "src/syscall_c.cpp"
   1:src/syscall_c.cpp **** //
   2:src/syscall_c.cpp **** // Created by os on 8/20/23.
   3:src/syscall_c.cpp **** //
   4:src/syscall_c.cpp **** 
   5:src/syscall_c.cpp **** #include "../h/syscall_c.hpp"
   6:src/syscall_c.cpp **** #include "../lib/console.h"
   7:src/syscall_c.cpp **** #include "../h/_thread.hpp"
   8:src/syscall_c.cpp **** 
   9:src/syscall_c.cpp **** void callOperation(uint64 operationCode){
  12              		.loc 1 9 41
  13              		.cfi_startproc
  14              	.LVL0:
  15 0000 130101FF 		addi	sp,sp,-16
  16              		.cfi_def_cfa_offset 16
  17 0004 23348100 		sd	s0,8(sp)
  18              		.cfi_offset 8, -8
  19 0008 13040101 		addi	s0,sp,16
  20              		.cfi_def_cfa 8, 0
  10:src/syscall_c.cpp ****     __asm__ volatile ("mv a0, %0" : : "r" (operationCode));
  21              		.loc 1 10 5
  22              		.loc 1 10 59 is_stmt 0
  23              	#APP
  24              	# 10 "src/syscall_c.cpp" 1
  11              	    __asm__ volatile ("ecall");
  25              		mv a0, a0
  26              	# 0 "" 2
  27              		.loc 1 11 5 is_stmt 1
  28              		.loc 1 11 31 is_stmt 0
  29              	# 11 "src/syscall_c.cpp" 1
  12              	}
  30              		ecall
  31              	# 0 "" 2
  32              		.loc 1 12 1
  33              	#NO_APP
  34 0014 03348100 		ld	s0,8(sp)
  35              		.cfi_restore 8
  36              		.cfi_def_cfa 2, 16
  37 0018 13010101 		addi	sp,sp,16
  38              		.cfi_def_cfa_offset 0
  39 001c 67800000 		jr	ra
  40              		.cfi_endproc
  41              	.LFE15:
  43              		.align	2
  44              		.globl	_Z9mem_allocm
  46              	_Z9mem_allocm:
  47              	.LFB16:
  13:src/syscall_c.cpp **** 
GAS LISTING /tmp/ccbQ4zQV.s 			page 2


  14:src/syscall_c.cpp **** //uint64 ret(){
  15:src/syscall_c.cpp **** //    uint64 volatile ret_val;
  16:src/syscall_c.cpp **** //    __asm__ volatile ("mv %0, a0":"=r"(ret_val));
  17:src/syscall_c.cpp **** //    return  ret_val;
  18:src/syscall_c.cpp **** //}
  19:src/syscall_c.cpp **** 
  20:src/syscall_c.cpp **** void* mem_alloc(size_t size){
  48              		.loc 1 20 29 is_stmt 1
  49              		.cfi_startproc
  50              	.LVL1:
  51 0020 130101FF 		addi	sp,sp,-16
  52              		.cfi_def_cfa_offset 16
  53 0024 23341100 		sd	ra,8(sp)
  54 0028 23308100 		sd	s0,0(sp)
  55              		.cfi_offset 1, -8
  56              		.cfi_offset 8, -16
  57 002c 13040101 		addi	s0,sp,16
  58              		.cfi_def_cfa 8, 0
  21:src/syscall_c.cpp ****     __asm__ volatile("mv a1, %0": : "r"(size));
  59              		.loc 1 21 5
  60              		.loc 1 21 47 is_stmt 0
  61              	#APP
  62              	# 21 "src/syscall_c.cpp" 1
  22              	    callOperation(0x1);
  63              		mv a1, a0
  64              	# 0 "" 2
  65              		.loc 1 22 5 is_stmt 1
  66              		.loc 1 22 18 is_stmt 0
  67              	#NO_APP
  68 0034 13051000 		li	a0,1
  69              	.LVL2:
  70 0038 97000000 		call	_Z13callOperationm
  70      E7800000 
  71              	.LVL3:
  23:src/syscall_c.cpp **** //    return (void*)ret();
  24:src/syscall_c.cpp ****     void* ret;
  72              		.loc 1 24 5 is_stmt 1
  25:src/syscall_c.cpp ****     __asm__ volatile("mv %0, a0" : "=r" (ret));
  73              		.loc 1 25 5
  74              		.loc 1 25 47 is_stmt 0
  75              	#APP
  76              	# 25 "src/syscall_c.cpp" 1
  26              	
  77              		mv a0, a0
  78              	# 0 "" 2
  79              	.LVL4:
  27:src/syscall_c.cpp ****     return ret;
  80              		.loc 1 27 5 is_stmt 1
  28:src/syscall_c.cpp **** }
  81              		.loc 1 28 1 is_stmt 0
  82              	#NO_APP
  83 0044 83308100 		ld	ra,8(sp)
  84              		.cfi_restore 1
  85 0048 03340100 		ld	s0,0(sp)
  86              		.cfi_restore 8
  87              		.cfi_def_cfa 2, 16
  88 004c 13010101 		addi	sp,sp,16
GAS LISTING /tmp/ccbQ4zQV.s 			page 3


  89              		.cfi_def_cfa_offset 0
  90 0050 67800000 		jr	ra
  91              		.cfi_endproc
  92              	.LFE16:
  94              		.align	2
  95              		.globl	_Z8mem_freePv
  97              	_Z8mem_freePv:
  98              	.LFB17:
  29:src/syscall_c.cpp **** 
  30:src/syscall_c.cpp **** int mem_free(void* adr){
  99              		.loc 1 30 24 is_stmt 1
 100              		.cfi_startproc
 101              	.LVL5:
 102 0054 130101FF 		addi	sp,sp,-16
 103              		.cfi_def_cfa_offset 16
 104 0058 23341100 		sd	ra,8(sp)
 105 005c 23308100 		sd	s0,0(sp)
 106              		.cfi_offset 1, -8
 107              		.cfi_offset 8, -16
 108 0060 13040101 		addi	s0,sp,16
 109              		.cfi_def_cfa 8, 0
  31:src/syscall_c.cpp ****     __asm__ volatile("mv a1, %0": : "r"(adr));
 110              		.loc 1 31 5
 111              		.loc 1 31 46 is_stmt 0
 112              	#APP
 113              	# 31 "src/syscall_c.cpp" 1
  32              	    callOperation(0x2);
 114              		mv a1, a0
 115              	# 0 "" 2
 116              		.loc 1 32 5 is_stmt 1
 117              		.loc 1 32 18 is_stmt 0
 118              	#NO_APP
 119 0068 13052000 		li	a0,2
 120              	.LVL6:
 121 006c 97000000 		call	_Z13callOperationm
 121      E7800000 
 122              	.LVL7:
  33:src/syscall_c.cpp ****     return 1;
 123              		.loc 1 33 5 is_stmt 1
  34:src/syscall_c.cpp **** }
 124              		.loc 1 34 1 is_stmt 0
 125 0074 13051000 		li	a0,1
 126 0078 83308100 		ld	ra,8(sp)
 127              		.cfi_restore 1
 128 007c 03340100 		ld	s0,0(sp)
 129              		.cfi_restore 8
 130              		.cfi_def_cfa 2, 16
 131 0080 13010101 		addi	sp,sp,16
 132              		.cfi_def_cfa_offset 0
 133 0084 67800000 		jr	ra
 134              		.cfi_endproc
 135              	.LFE17:
 137              		.align	2
 138              		.globl	_Z4getcv
 140              	_Z4getcv:
 141              	.LFB18:
  35:src/syscall_c.cpp **** 
GAS LISTING /tmp/ccbQ4zQV.s 			page 4


  36:src/syscall_c.cpp **** char getc(){
 142              		.loc 1 36 12 is_stmt 1
 143              		.cfi_startproc
 144 0088 130101FE 		addi	sp,sp,-32
 145              		.cfi_def_cfa_offset 32
 146 008c 233C1100 		sd	ra,24(sp)
 147 0090 23388100 		sd	s0,16(sp)
 148              		.cfi_offset 1, -8
 149              		.cfi_offset 8, -16
 150 0094 13040102 		addi	s0,sp,32
 151              		.cfi_def_cfa 8, 0
  37:src/syscall_c.cpp ****     callOperation(0x41);
 152              		.loc 1 37 5
 153              		.loc 1 37 18 is_stmt 0
 154 0098 13051004 		li	a0,65
 155 009c 97000000 		call	_Z13callOperationm
 155      E7800000 
 156              	.LVL8:
  38:src/syscall_c.cpp ****     uint64 volatile ret;
 157              		.loc 1 38 5 is_stmt 1
  39:src/syscall_c.cpp ****     __asm__ volatile ("mv %0, a0" : "=r" (ret));
 158              		.loc 1 39 5
 159              		.loc 1 39 48 is_stmt 0
 160              	#APP
 161              	# 39 "src/syscall_c.cpp" 1
  40              	    return (char)ret;
 162              		mv a5, a0
 163              	# 0 "" 2
 164              	#NO_APP
 165 00a8 2334F4FE 		sd	a5,-24(s0)
 166              		.loc 1 40 5 is_stmt 1
 167              		.loc 1 40 18 is_stmt 0
 168 00ac 033584FE 		ld	a0,-24(s0)
  41:src/syscall_c.cpp **** }
 169              		.loc 1 41 1
 170 00b0 1375F50F 		andi	a0,a0,0xff
 171 00b4 83308101 		ld	ra,24(sp)
 172              		.cfi_restore 1
 173 00b8 03340101 		ld	s0,16(sp)
 174              		.cfi_restore 8
 175              		.cfi_def_cfa 2, 32
 176 00bc 13010102 		addi	sp,sp,32
 177              		.cfi_def_cfa_offset 0
 178 00c0 67800000 		jr	ra
 179              		.cfi_endproc
 180              	.LFE18:
 182              		.align	2
 183              		.globl	_Z4putcc
 185              	_Z4putcc:
 186              	.LFB19:
  42:src/syscall_c.cpp **** 
  43:src/syscall_c.cpp **** void putc(char c){
 187              		.loc 1 43 18 is_stmt 1
 188              		.cfi_startproc
 189              	.LVL9:
 190 00c4 130101FF 		addi	sp,sp,-16
 191              		.cfi_def_cfa_offset 16
GAS LISTING /tmp/ccbQ4zQV.s 			page 5


 192 00c8 23341100 		sd	ra,8(sp)
 193 00cc 23308100 		sd	s0,0(sp)
 194              		.cfi_offset 1, -8
 195              		.cfi_offset 8, -16
 196 00d0 13040101 		addi	s0,sp,16
 197              		.cfi_def_cfa 8, 0
  44:src/syscall_c.cpp ****     __asm__ volatile("mv a1,%0": : "r"(c));
 198              		.loc 1 44 5
 199              		.loc 1 44 43 is_stmt 0
 200              	#APP
 201              	# 44 "src/syscall_c.cpp" 1
  45              	    callOperation(0x42);
 202              		mv a1,a0
 203              	# 0 "" 2
 204              		.loc 1 45 5 is_stmt 1
 205              		.loc 1 45 18 is_stmt 0
 206              	#NO_APP
 207 00d8 13052004 		li	a0,66
 208              	.LVL10:
 209 00dc 97000000 		call	_Z13callOperationm
 209      E7800000 
 210              	.LVL11:
  46:src/syscall_c.cpp **** }
 211              		.loc 1 46 1
 212 00e4 83308100 		ld	ra,8(sp)
 213              		.cfi_restore 1
 214 00e8 03340100 		ld	s0,0(sp)
 215              		.cfi_restore 8
 216              		.cfi_def_cfa 2, 16
 217 00ec 13010101 		addi	sp,sp,16
 218              		.cfi_def_cfa_offset 0
 219 00f0 67800000 		jr	ra
 220              		.cfi_endproc
 221              	.LFE19:
 223              		.align	2
 224              		.globl	_Z13thread_createPP7_threadPFvPvES2_
 226              	_Z13thread_createPP7_threadPFvPvES2_:
 227              	.LFB20:
  47:src/syscall_c.cpp **** 
  48:src/syscall_c.cpp **** int thread_create(thread_t* handle, void(*start_routine)(void*), void* arg){
 228              		.loc 1 48 76 is_stmt 1
 229              		.cfi_startproc
 230              	.LVL12:
 231 00f4 130101FF 		addi	sp,sp,-16
 232              		.cfi_def_cfa_offset 16
 233 00f8 23341100 		sd	ra,8(sp)
 234 00fc 23308100 		sd	s0,0(sp)
 235              		.cfi_offset 1, -8
 236              		.cfi_offset 8, -16
 237 0100 13040101 		addi	s0,sp,16
 238              		.cfi_def_cfa 8, 0
  49:src/syscall_c.cpp ****     size_t argument1;
 239              		.loc 1 49 5
  50:src/syscall_c.cpp ****     size_t argument2;
 240              		.loc 1 50 5
  51:src/syscall_c.cpp ****     size_t argument3;
 241              		.loc 1 51 5
GAS LISTING /tmp/ccbQ4zQV.s 			page 6


  52:src/syscall_c.cpp ****     void* stackSpace = mem_alloc(DEFAULT_STACK_SIZE);
 242              		.loc 1 52 5
 243              		.loc 1 52 33 is_stmt 0
 244 0104 37150000 		li	a0,4096
 245              	.LVL13:
 246 0108 97000000 		call	_Z9mem_allocm
 246      E7800000 
 247              	.LVL14:
  53:src/syscall_c.cpp ****     __asm__ volatile("mv %0, a0" : "=r" (argument1));
 248              		.loc 1 53 5 is_stmt 1
 249              		.loc 1 53 53 is_stmt 0
 250              	#APP
 251              	# 53 "src/syscall_c.cpp" 1
  54              	    __asm__ volatile("mv %0, a1" : "=r" (argument2));
 252              		mv a3, a0
 253              	# 0 "" 2
 254              	.LVL15:
 255              		.loc 1 54 5 is_stmt 1
 256              		.loc 1 54 53 is_stmt 0
 257              	# 54 "src/syscall_c.cpp" 1
  55              	    __asm__ volatile("mv %0, a2" : "=r" (argument3));
 258              		mv a4, a1
 259              	# 0 "" 2
 260              	.LVL16:
 261              		.loc 1 55 5 is_stmt 1
 262              		.loc 1 55 53 is_stmt 0
 263              	# 55 "src/syscall_c.cpp" 1
  56              	
 264              		mv a5, a2
 265              	# 0 "" 2
 266              	.LVL17:
  57:src/syscall_c.cpp ****     __asm__ volatile("mv a1, %0" : : "r" ((thread_t*)argument1));
 267              		.loc 1 57 5 is_stmt 1
 268              		.loc 1 57 65 is_stmt 0
 269              	# 57 "src/syscall_c.cpp" 1
  58              	    __asm__ volatile("mv a2, %0" : : "r" ((_thread::Body)argument2));
 270              		mv a1, a3
 271              	# 0 "" 2
 272              		.loc 1 58 5 is_stmt 1
 273              		.loc 1 58 69 is_stmt 0
 274              	# 58 "src/syscall_c.cpp" 1
  59              	    __asm__ volatile("mv t0, %0" : : "r" ((void*)argument3));
 275              		mv a2, a4
 276              	# 0 "" 2
 277              		.loc 1 59 5 is_stmt 1
 278              		.loc 1 59 61 is_stmt 0
 279              	# 59 "src/syscall_c.cpp" 1
  60              	    __asm__ volatile("mv t1, %0" : : "r" (stackSpace));
 280              		mv t0, a5
 281              	# 0 "" 2
 282              		.loc 1 60 5 is_stmt 1
 283              		.loc 1 60 55 is_stmt 0
 284              	# 60 "src/syscall_c.cpp" 1
  61              	
  62:src/syscall_c.cpp ****     /*__asm__ volatile ("mv a1, %0": : "r"(&handle));
  63:src/syscall_c.cpp ****     __asm__ volatile ("mv a2, %0": : "r"(start_routine));
  64:src/syscall_c.cpp ****     __asm__ volatile ("mv a3, %0": : "r"(arg));*/
GAS LISTING /tmp/ccbQ4zQV.s 			page 7


  65:src/syscall_c.cpp ****     callOperation(0x11);
 285              		mv t1, a0
 286              	# 0 "" 2
 287              		.loc 1 65 5 is_stmt 1
 288              		.loc 1 65 18 is_stmt 0
 289              	#NO_APP
 290 012c 13051001 		li	a0,17
 291              	.LVL18:
 292 0130 97000000 		call	_Z13callOperationm
 292      E7800000 
 293              	.LVL19:
  66:src/syscall_c.cpp ****     return 1;
 294              		.loc 1 66 5 is_stmt 1
  67:src/syscall_c.cpp **** }
 295              		.loc 1 67 1 is_stmt 0
 296 0138 13051000 		li	a0,1
 297 013c 83308100 		ld	ra,8(sp)
 298              		.cfi_restore 1
 299 0140 03340100 		ld	s0,0(sp)
 300              		.cfi_restore 8
 301              		.cfi_def_cfa 2, 16
 302 0144 13010101 		addi	sp,sp,16
 303              		.cfi_def_cfa_offset 0
 304 0148 67800000 		jr	ra
 305              		.cfi_endproc
 306              	.LFE20:
 308              		.align	2
 309              		.globl	_Z15thread_dispatchv
 311              	_Z15thread_dispatchv:
 312              	.LFB21:
  68:src/syscall_c.cpp **** 
  69:src/syscall_c.cpp **** void thread_dispatch(){
 313              		.loc 1 69 23 is_stmt 1
 314              		.cfi_startproc
 315 014c 130101FF 		addi	sp,sp,-16
 316              		.cfi_def_cfa_offset 16
 317 0150 23341100 		sd	ra,8(sp)
 318 0154 23308100 		sd	s0,0(sp)
 319              		.cfi_offset 1, -8
 320              		.cfi_offset 8, -16
 321 0158 13040101 		addi	s0,sp,16
 322              		.cfi_def_cfa 8, 0
  70:src/syscall_c.cpp ****     callOperation(0x13);
 323              		.loc 1 70 5
 324              		.loc 1 70 18 is_stmt 0
 325 015c 13053001 		li	a0,19
 326 0160 97000000 		call	_Z13callOperationm
 326      E7800000 
 327              	.LVL20:
  71:src/syscall_c.cpp **** }
 328              		.loc 1 71 1
 329 0168 83308100 		ld	ra,8(sp)
 330              		.cfi_restore 1
 331 016c 03340100 		ld	s0,0(sp)
 332              		.cfi_restore 8
 333              		.cfi_def_cfa 2, 16
 334 0170 13010101 		addi	sp,sp,16
GAS LISTING /tmp/ccbQ4zQV.s 			page 8


 335              		.cfi_def_cfa_offset 0
 336 0174 67800000 		jr	ra
 337              		.cfi_endproc
 338              	.LFE21:
 340              		.align	2
 341              		.globl	_Z11thread_exitv
 343              	_Z11thread_exitv:
 344              	.LFB22:
  72:src/syscall_c.cpp **** int thread_exit(){
 345              		.loc 1 72 18 is_stmt 1
 346              		.cfi_startproc
 347 0178 130101FF 		addi	sp,sp,-16
 348              		.cfi_def_cfa_offset 16
 349 017c 23341100 		sd	ra,8(sp)
 350 0180 23308100 		sd	s0,0(sp)
 351              		.cfi_offset 1, -8
 352              		.cfi_offset 8, -16
 353 0184 13040101 		addi	s0,sp,16
 354              		.cfi_def_cfa 8, 0
  73:src/syscall_c.cpp ****     callOperation(0x12);
 355              		.loc 1 73 5
 356              		.loc 1 73 18 is_stmt 0
 357 0188 13052001 		li	a0,18
 358 018c 97000000 		call	_Z13callOperationm
 358      E7800000 
 359              	.LVL21:
  74:src/syscall_c.cpp ****     return 1;
 360              		.loc 1 74 5 is_stmt 1
  75:src/syscall_c.cpp **** }
 361              		.loc 1 75 1 is_stmt 0
 362 0194 13051000 		li	a0,1
 363 0198 83308100 		ld	ra,8(sp)
 364              		.cfi_restore 1
 365 019c 03340100 		ld	s0,0(sp)
 366              		.cfi_restore 8
 367              		.cfi_def_cfa 2, 16
 368 01a0 13010101 		addi	sp,sp,16
 369              		.cfi_def_cfa_offset 0
 370 01a4 67800000 		jr	ra
 371              		.cfi_endproc
 372              	.LFE22:
 374              		.align	2
 375              		.globl	_Z11thread_joinP7_thread
 377              	_Z11thread_joinP7_thread:
 378              	.LFB23:
  76:src/syscall_c.cpp **** void thread_join(thread_t handle){
 379              		.loc 1 76 34 is_stmt 1
 380              		.cfi_startproc
 381              	.LVL22:
 382 01a8 130101FF 		addi	sp,sp,-16
 383              		.cfi_def_cfa_offset 16
 384 01ac 23341100 		sd	ra,8(sp)
 385 01b0 23308100 		sd	s0,0(sp)
 386              		.cfi_offset 1, -8
 387              		.cfi_offset 8, -16
 388 01b4 13040101 		addi	s0,sp,16
 389              		.cfi_def_cfa 8, 0
GAS LISTING /tmp/ccbQ4zQV.s 			page 9


  77:src/syscall_c.cpp ****     __asm__ volatile("mv a1, %0" : : "r"(handle));
 390              		.loc 1 77 5
 391              		.loc 1 77 50 is_stmt 0
 392              	#APP
 393              	# 77 "src/syscall_c.cpp" 1
  78              	    callOperation(0x14);
 394              		mv a1, a0
 395              	# 0 "" 2
 396              		.loc 1 78 5 is_stmt 1
 397              		.loc 1 78 18 is_stmt 0
 398              	#NO_APP
 399 01bc 13054001 		li	a0,20
 400              	.LVL23:
 401 01c0 97000000 		call	_Z13callOperationm
 401      E7800000 
 402              	.LVL24:
  79:src/syscall_c.cpp **** }
 403              		.loc 1 79 1
 404 01c8 83308100 		ld	ra,8(sp)
 405              		.cfi_restore 1
 406 01cc 03340100 		ld	s0,0(sp)
 407              		.cfi_restore 8
 408              		.cfi_def_cfa 2, 16
 409 01d0 13010101 		addi	sp,sp,16
 410              		.cfi_def_cfa_offset 0
 411 01d4 67800000 		jr	ra
 412              		.cfi_endproc
 413              	.LFE23:
 415              	.Letext0:
 416              		.file 2 "src/../h/../lib/hw.h"
 417              		.file 3 "src/../h/syscall_c.hpp"
 418              		.file 4 "src/../h/_thread.hpp"
GAS LISTING /tmp/ccbQ4zQV.s 			page 10


DEFINED SYMBOLS
                            *ABS*:0000000000000000 syscall_c.cpp
     /tmp/ccbQ4zQV.s:9      .text:0000000000000000 _Z13callOperationm
     /tmp/ccbQ4zQV.s:13     .text:0000000000000000 .L0 
     /tmp/ccbQ4zQV.s:15     .text:0000000000000000 .L0 
     /tmp/ccbQ4zQV.s:16     .text:0000000000000004 .L0 
     /tmp/ccbQ4zQV.s:18     .text:0000000000000008 .L0 
     /tmp/ccbQ4zQV.s:20     .text:000000000000000c .L0 
     /tmp/ccbQ4zQV.s:22     .text:000000000000000c .L0 
   src/syscall_c.cpp:10     .text:000000000000000c .L0 
     /tmp/ccbQ4zQV.s:28     .text:0000000000000010 .L0 
   src/syscall_c.cpp:11     .text:0000000000000010 .L0 
     /tmp/ccbQ4zQV.s:34     .text:0000000000000014 .L0 
     /tmp/ccbQ4zQV.s:35     .text:0000000000000018 .L0 
     /tmp/ccbQ4zQV.s:36     .text:0000000000000018 .L0 
     /tmp/ccbQ4zQV.s:38     .text:000000000000001c .L0 
     /tmp/ccbQ4zQV.s:40     .text:0000000000000020 .L0 
     /tmp/ccbQ4zQV.s:46     .text:0000000000000020 _Z9mem_allocm
     /tmp/ccbQ4zQV.s:49     .text:0000000000000020 .L0 
     /tmp/ccbQ4zQV.s:51     .text:0000000000000020 .L0 
     /tmp/ccbQ4zQV.s:52     .text:0000000000000024 .L0 
     /tmp/ccbQ4zQV.s:55     .text:000000000000002c .L0 
     /tmp/ccbQ4zQV.s:56     .text:000000000000002c .L0 
     /tmp/ccbQ4zQV.s:58     .text:0000000000000030 .L0 
     /tmp/ccbQ4zQV.s:60     .text:0000000000000030 .L0 
   src/syscall_c.cpp:21     .text:0000000000000030 .L0 
     /tmp/ccbQ4zQV.s:66     .text:0000000000000034 .L0 
     /tmp/ccbQ4zQV.s:68     .text:0000000000000034 .L0 
     /tmp/ccbQ4zQV.s:73     .text:0000000000000040 .L0 
     /tmp/ccbQ4zQV.s:74     .text:0000000000000040 .L0 
   src/syscall_c.cpp:25     .text:0000000000000040 .L0 
     /tmp/ccbQ4zQV.s:81     .text:0000000000000044 .L0 
     /tmp/ccbQ4zQV.s:83     .text:0000000000000044 .L0 
     /tmp/ccbQ4zQV.s:84     .text:0000000000000048 .L0 
     /tmp/ccbQ4zQV.s:86     .text:000000000000004c .L0 
     /tmp/ccbQ4zQV.s:87     .text:000000000000004c .L0 
     /tmp/ccbQ4zQV.s:89     .text:0000000000000050 .L0 
     /tmp/ccbQ4zQV.s:91     .text:0000000000000054 .L0 
     /tmp/ccbQ4zQV.s:97     .text:0000000000000054 _Z8mem_freePv
     /tmp/ccbQ4zQV.s:100    .text:0000000000000054 .L0 
     /tmp/ccbQ4zQV.s:102    .text:0000000000000054 .L0 
     /tmp/ccbQ4zQV.s:103    .text:0000000000000058 .L0 
     /tmp/ccbQ4zQV.s:106    .text:0000000000000060 .L0 
     /tmp/ccbQ4zQV.s:107    .text:0000000000000060 .L0 
     /tmp/ccbQ4zQV.s:109    .text:0000000000000064 .L0 
     /tmp/ccbQ4zQV.s:111    .text:0000000000000064 .L0 
   src/syscall_c.cpp:31     .text:0000000000000064 .L0 
     /tmp/ccbQ4zQV.s:117    .text:0000000000000068 .L0 
     /tmp/ccbQ4zQV.s:119    .text:0000000000000068 .L0 
     /tmp/ccbQ4zQV.s:124    .text:0000000000000074 .L0 
     /tmp/ccbQ4zQV.s:125    .text:0000000000000074 .L0 
     /tmp/ccbQ4zQV.s:127    .text:000000000000007c .L0 
     /tmp/ccbQ4zQV.s:129    .text:0000000000000080 .L0 
     /tmp/ccbQ4zQV.s:130    .text:0000000000000080 .L0 
     /tmp/ccbQ4zQV.s:132    .text:0000000000000084 .L0 
     /tmp/ccbQ4zQV.s:134    .text:0000000000000088 .L0 
     /tmp/ccbQ4zQV.s:140    .text:0000000000000088 _Z4getcv
GAS LISTING /tmp/ccbQ4zQV.s 			page 11


     /tmp/ccbQ4zQV.s:143    .text:0000000000000088 .L0 
     /tmp/ccbQ4zQV.s:144    .text:0000000000000088 .L0 
     /tmp/ccbQ4zQV.s:145    .text:000000000000008c .L0 
     /tmp/ccbQ4zQV.s:148    .text:0000000000000094 .L0 
     /tmp/ccbQ4zQV.s:149    .text:0000000000000094 .L0 
     /tmp/ccbQ4zQV.s:151    .text:0000000000000098 .L0 
     /tmp/ccbQ4zQV.s:153    .text:0000000000000098 .L0 
     /tmp/ccbQ4zQV.s:154    .text:0000000000000098 .L0 
     /tmp/ccbQ4zQV.s:158    .text:00000000000000a4 .L0 
     /tmp/ccbQ4zQV.s:159    .text:00000000000000a4 .L0 
   src/syscall_c.cpp:39     .text:00000000000000a4 .L0 
     /tmp/ccbQ4zQV.s:167    .text:00000000000000ac .L0 
     /tmp/ccbQ4zQV.s:168    .text:00000000000000ac .L0 
     /tmp/ccbQ4zQV.s:170    .text:00000000000000b0 .L0 
     /tmp/ccbQ4zQV.s:172    .text:00000000000000b8 .L0 
     /tmp/ccbQ4zQV.s:174    .text:00000000000000bc .L0 
     /tmp/ccbQ4zQV.s:175    .text:00000000000000bc .L0 
     /tmp/ccbQ4zQV.s:177    .text:00000000000000c0 .L0 
     /tmp/ccbQ4zQV.s:179    .text:00000000000000c4 .L0 
     /tmp/ccbQ4zQV.s:185    .text:00000000000000c4 _Z4putcc
     /tmp/ccbQ4zQV.s:188    .text:00000000000000c4 .L0 
     /tmp/ccbQ4zQV.s:190    .text:00000000000000c4 .L0 
     /tmp/ccbQ4zQV.s:191    .text:00000000000000c8 .L0 
     /tmp/ccbQ4zQV.s:194    .text:00000000000000d0 .L0 
     /tmp/ccbQ4zQV.s:195    .text:00000000000000d0 .L0 
     /tmp/ccbQ4zQV.s:197    .text:00000000000000d4 .L0 
     /tmp/ccbQ4zQV.s:199    .text:00000000000000d4 .L0 
   src/syscall_c.cpp:44     .text:00000000000000d4 .L0 
     /tmp/ccbQ4zQV.s:205    .text:00000000000000d8 .L0 
     /tmp/ccbQ4zQV.s:207    .text:00000000000000d8 .L0 
     /tmp/ccbQ4zQV.s:212    .text:00000000000000e4 .L0 
     /tmp/ccbQ4zQV.s:213    .text:00000000000000e8 .L0 
     /tmp/ccbQ4zQV.s:215    .text:00000000000000ec .L0 
     /tmp/ccbQ4zQV.s:216    .text:00000000000000ec .L0 
     /tmp/ccbQ4zQV.s:218    .text:00000000000000f0 .L0 
     /tmp/ccbQ4zQV.s:220    .text:00000000000000f4 .L0 
     /tmp/ccbQ4zQV.s:226    .text:00000000000000f4 _Z13thread_createPP7_threadPFvPvES2_
     /tmp/ccbQ4zQV.s:229    .text:00000000000000f4 .L0 
     /tmp/ccbQ4zQV.s:231    .text:00000000000000f4 .L0 
     /tmp/ccbQ4zQV.s:232    .text:00000000000000f8 .L0 
     /tmp/ccbQ4zQV.s:235    .text:0000000000000100 .L0 
     /tmp/ccbQ4zQV.s:236    .text:0000000000000100 .L0 
     /tmp/ccbQ4zQV.s:238    .text:0000000000000104 .L0 
     /tmp/ccbQ4zQV.s:240    .text:0000000000000104 .L0 
     /tmp/ccbQ4zQV.s:241    .text:0000000000000104 .L0 
     /tmp/ccbQ4zQV.s:242    .text:0000000000000104 .L0 
     /tmp/ccbQ4zQV.s:243    .text:0000000000000104 .L0 
     /tmp/ccbQ4zQV.s:244    .text:0000000000000104 .L0 
     /tmp/ccbQ4zQV.s:249    .text:0000000000000110 .L0 
   src/syscall_c.cpp:53     .text:0000000000000110 .L0 
     /tmp/ccbQ4zQV.s:256    .text:0000000000000114 .L0 
   src/syscall_c.cpp:54     .text:0000000000000114 .L0 
     /tmp/ccbQ4zQV.s:262    .text:0000000000000118 .L0 
   src/syscall_c.cpp:55     .text:0000000000000118 .L0 
     /tmp/ccbQ4zQV.s:268    .text:000000000000011c .L0 
   src/syscall_c.cpp:57     .text:000000000000011c .L0 
     /tmp/ccbQ4zQV.s:273    .text:0000000000000120 .L0 
GAS LISTING /tmp/ccbQ4zQV.s 			page 12


   src/syscall_c.cpp:58     .text:0000000000000120 .L0 
     /tmp/ccbQ4zQV.s:278    .text:0000000000000124 .L0 
   src/syscall_c.cpp:59     .text:0000000000000124 .L0 
     /tmp/ccbQ4zQV.s:283    .text:0000000000000128 .L0 
   src/syscall_c.cpp:60     .text:0000000000000128 .L0 
     /tmp/ccbQ4zQV.s:288    .text:000000000000012c .L0 
     /tmp/ccbQ4zQV.s:290    .text:000000000000012c .L0 
     /tmp/ccbQ4zQV.s:295    .text:0000000000000138 .L0 
     /tmp/ccbQ4zQV.s:296    .text:0000000000000138 .L0 
     /tmp/ccbQ4zQV.s:298    .text:0000000000000140 .L0 
     /tmp/ccbQ4zQV.s:300    .text:0000000000000144 .L0 
     /tmp/ccbQ4zQV.s:301    .text:0000000000000144 .L0 
     /tmp/ccbQ4zQV.s:303    .text:0000000000000148 .L0 
     /tmp/ccbQ4zQV.s:305    .text:000000000000014c .L0 
     /tmp/ccbQ4zQV.s:311    .text:000000000000014c _Z15thread_dispatchv
     /tmp/ccbQ4zQV.s:314    .text:000000000000014c .L0 
     /tmp/ccbQ4zQV.s:315    .text:000000000000014c .L0 
     /tmp/ccbQ4zQV.s:316    .text:0000000000000150 .L0 
     /tmp/ccbQ4zQV.s:319    .text:0000000000000158 .L0 
     /tmp/ccbQ4zQV.s:320    .text:0000000000000158 .L0 
     /tmp/ccbQ4zQV.s:322    .text:000000000000015c .L0 
     /tmp/ccbQ4zQV.s:324    .text:000000000000015c .L0 
     /tmp/ccbQ4zQV.s:325    .text:000000000000015c .L0 
     /tmp/ccbQ4zQV.s:329    .text:0000000000000168 .L0 
     /tmp/ccbQ4zQV.s:330    .text:000000000000016c .L0 
     /tmp/ccbQ4zQV.s:332    .text:0000000000000170 .L0 
     /tmp/ccbQ4zQV.s:333    .text:0000000000000170 .L0 
     /tmp/ccbQ4zQV.s:335    .text:0000000000000174 .L0 
     /tmp/ccbQ4zQV.s:337    .text:0000000000000178 .L0 
     /tmp/ccbQ4zQV.s:343    .text:0000000000000178 _Z11thread_exitv
     /tmp/ccbQ4zQV.s:346    .text:0000000000000178 .L0 
     /tmp/ccbQ4zQV.s:347    .text:0000000000000178 .L0 
     /tmp/ccbQ4zQV.s:348    .text:000000000000017c .L0 
     /tmp/ccbQ4zQV.s:351    .text:0000000000000184 .L0 
     /tmp/ccbQ4zQV.s:352    .text:0000000000000184 .L0 
     /tmp/ccbQ4zQV.s:354    .text:0000000000000188 .L0 
     /tmp/ccbQ4zQV.s:356    .text:0000000000000188 .L0 
     /tmp/ccbQ4zQV.s:357    .text:0000000000000188 .L0 
     /tmp/ccbQ4zQV.s:361    .text:0000000000000194 .L0 
     /tmp/ccbQ4zQV.s:362    .text:0000000000000194 .L0 
     /tmp/ccbQ4zQV.s:364    .text:000000000000019c .L0 
     /tmp/ccbQ4zQV.s:366    .text:00000000000001a0 .L0 
     /tmp/ccbQ4zQV.s:367    .text:00000000000001a0 .L0 
     /tmp/ccbQ4zQV.s:369    .text:00000000000001a4 .L0 
     /tmp/ccbQ4zQV.s:371    .text:00000000000001a8 .L0 
     /tmp/ccbQ4zQV.s:377    .text:00000000000001a8 _Z11thread_joinP7_thread
     /tmp/ccbQ4zQV.s:380    .text:00000000000001a8 .L0 
     /tmp/ccbQ4zQV.s:382    .text:00000000000001a8 .L0 
     /tmp/ccbQ4zQV.s:383    .text:00000000000001ac .L0 
     /tmp/ccbQ4zQV.s:386    .text:00000000000001b4 .L0 
     /tmp/ccbQ4zQV.s:387    .text:00000000000001b4 .L0 
     /tmp/ccbQ4zQV.s:389    .text:00000000000001b8 .L0 
     /tmp/ccbQ4zQV.s:391    .text:00000000000001b8 .L0 
   src/syscall_c.cpp:77     .text:00000000000001b8 .L0 
     /tmp/ccbQ4zQV.s:397    .text:00000000000001bc .L0 
     /tmp/ccbQ4zQV.s:399    .text:00000000000001bc .L0 
     /tmp/ccbQ4zQV.s:404    .text:00000000000001c8 .L0 
GAS LISTING /tmp/ccbQ4zQV.s 			page 13


     /tmp/ccbQ4zQV.s:405    .text:00000000000001cc .L0 
     /tmp/ccbQ4zQV.s:407    .text:00000000000001d0 .L0 
     /tmp/ccbQ4zQV.s:408    .text:00000000000001d0 .L0 
     /tmp/ccbQ4zQV.s:410    .text:00000000000001d4 .L0 
     /tmp/ccbQ4zQV.s:412    .text:00000000000001d8 .L0 
     /tmp/ccbQ4zQV.s:419    .text:00000000000001d8 .L0 
     /tmp/ccbQ4zQV.s:1079   .debug_abbrev:0000000000000000 .Ldebug_abbrev0
     /tmp/ccbQ4zQV.s:1963   .debug_str:0000000000000372 .LASF65
     /tmp/ccbQ4zQV.s:1897   .debug_str:000000000000018d .LASF66
     /tmp/ccbQ4zQV.s:1875   .debug_str:00000000000000e1 .LASF67
     /tmp/ccbQ4zQV.s:5      .text:0000000000000000 .Ltext0
     /tmp/ccbQ4zQV.s:415    .text:00000000000001d8 .Letext0
     /tmp/ccbQ4zQV.s:1841   .debug_line:0000000000000000 .Ldebug_line0
     /tmp/ccbQ4zQV.s:1913   .debug_str:0000000000000226 .LASF0
     /tmp/ccbQ4zQV.s:1923   .debug_str:0000000000000277 .LASF1
     /tmp/ccbQ4zQV.s:1905   .debug_str:00000000000001d8 .LASF2
     /tmp/ccbQ4zQV.s:1895   .debug_str:0000000000000186 .LASF4
     /tmp/ccbQ4zQV.s:1951   .debug_str:0000000000000335 .LASF3
     /tmp/ccbQ4zQV.s:1859   .debug_str:0000000000000060 .LASF5
     /tmp/ccbQ4zQV.s:1927   .debug_str:000000000000029b .LASF6
     /tmp/ccbQ4zQV.s:1911   .debug_str:0000000000000213 .LASF7
     /tmp/ccbQ4zQV.s:1977   .debug_str:0000000000000476 .LASF8
     /tmp/ccbQ4zQV.s:1889   .debug_str:000000000000016b .LASF9
     /tmp/ccbQ4zQV.s:1935   .debug_str:00000000000002d7 .LASF10
     /tmp/ccbQ4zQV.s:1967   .debug_str:0000000000000440 .LASF11
     /tmp/ccbQ4zQV.s:1861   .debug_str:0000000000000067 .LASF12
     /tmp/ccbQ4zQV.s:1845   .debug_str:0000000000000009 .LASF13
     /tmp/ccbQ4zQV.s:1865   .debug_str:000000000000008a .LASF14
     /tmp/ccbQ4zQV.s:1947   .debug_str:0000000000000316 .LASF15
     /tmp/ccbQ4zQV.s:1877   .debug_str:0000000000000104 .LASF16
     /tmp/ccbQ4zQV.s:1843   .debug_str:0000000000000000 .LASF17
     /tmp/ccbQ4zQV.s:1893   .debug_str:000000000000017e .LASF32
     /tmp/ccbQ4zQV.s:1849   .debug_str:000000000000001e .LASF68
     /tmp/ccbQ4zQV.s:1887   .debug_str:0000000000000160 .LASF18
     /tmp/ccbQ4zQV.s:1881   .debug_str:0000000000000128 .LASF19
     /tmp/ccbQ4zQV.s:1869   .debug_str:00000000000000a4 .LASF20
     /tmp/ccbQ4zQV.s:1873   .debug_str:00000000000000c2 .LASF22
     /tmp/ccbQ4zQV.s:1853   .debug_str:000000000000003f .LASF43
     /tmp/ccbQ4zQV.s:1885   .debug_str:0000000000000145 .LASF69
     /tmp/ccbQ4zQV.s:1879   .debug_str:000000000000011a .LASF28
     /tmp/ccbQ4zQV.s:1907   .debug_str:00000000000001e6 .LASF30
     /tmp/ccbQ4zQV.s:1945   .debug_str:0000000000000311 .LASF70
     /tmp/ccbQ4zQV.s:1855   .debug_str:000000000000004b .LASF21
     /tmp/ccbQ4zQV.s:1921   .debug_str:0000000000000259 .LASF23
     /tmp/ccbQ4zQV.s:1961   .debug_str:0000000000000366 .LASF24
     /tmp/ccbQ4zQV.s:1981   .debug_str:0000000000000494 .LASF26
     /tmp/ccbQ4zQV.s:1979   .debug_str:0000000000000486 .LASF25
     /tmp/ccbQ4zQV.s:1903   .debug_str:00000000000001ac .LASF27
     /tmp/ccbQ4zQV.s:1969   .debug_str:000000000000044f .LASF29
     /tmp/ccbQ4zQV.s:1929   .debug_str:00000000000002ae .LASF31
     /tmp/ccbQ4zQV.s:1919   .debug_str:000000000000023e .LASF33
     /tmp/ccbQ4zQV.s:1975   .debug_str:000000000000046d .LASF34
     /tmp/ccbQ4zQV.s:1899   .debug_str:000000000000019f .LASF35
     /tmp/ccbQ4zQV.s:1901   .debug_str:00000000000001a4 .LASF36
     /tmp/ccbQ4zQV.s:1915   .debug_str:0000000000000233 .LASF37
     /tmp/ccbQ4zQV.s:1965   .debug_str:0000000000000436 .LASF38
     /tmp/ccbQ4zQV.s:1917   .debug_str:0000000000000239 .LASF39
GAS LISTING /tmp/ccbQ4zQV.s 			page 14


     /tmp/ccbQ4zQV.s:1857   .debug_str:000000000000005a .LASF40
     /tmp/ccbQ4zQV.s:1971   .debug_str:0000000000000458 .LASF71
     /tmp/ccbQ4zQV.s:1851   .debug_str:0000000000000026 .LASF41
     /tmp/ccbQ4zQV.s:378    .text:00000000000001a8 .LFB23
     /tmp/ccbQ4zQV.s:413    .text:00000000000001d8 .LFE23
     /tmp/ccbQ4zQV.s:1955   .debug_str:0000000000000351 .LASF46
     /tmp/ccbQ4zQV.s:1702   .debug_loc:0000000000000000 .LLST10
     /tmp/ccbQ4zQV.s:402    .text:00000000000001c8 .LVL24
     /tmp/ccbQ4zQV.s:1925   .debug_str:000000000000028a .LASF44
     /tmp/ccbQ4zQV.s:344    .text:0000000000000178 .LFB22
     /tmp/ccbQ4zQV.s:372    .text:00000000000001a8 .LFE22
     /tmp/ccbQ4zQV.s:359    .text:0000000000000194 .LVL21
     /tmp/ccbQ4zQV.s:1883   .debug_str:0000000000000130 .LASF42
     /tmp/ccbQ4zQV.s:312    .text:000000000000014c .LFB21
     /tmp/ccbQ4zQV.s:338    .text:0000000000000178 .LFE21
     /tmp/ccbQ4zQV.s:327    .text:0000000000000168 .LVL20
     /tmp/ccbQ4zQV.s:1985   .debug_str:00000000000004bb .LASF45
     /tmp/ccbQ4zQV.s:227    .text:00000000000000f4 .LFB20
     /tmp/ccbQ4zQV.s:306    .text:000000000000014c .LFE20
     /tmp/ccbQ4zQV.s:1716   .debug_loc:0000000000000039 .LLST3
     /tmp/ccbQ4zQV.s:1939   .debug_str:00000000000002ef .LASF47
     /tmp/ccbQ4zQV.s:1730   .debug_loc:0000000000000072 .LLST4
     /tmp/ccbQ4zQV.s:1744   .debug_loc:00000000000000ab .LLST5
     /tmp/ccbQ4zQV.s:1983   .debug_str:00000000000004b1 .LASF48
     /tmp/ccbQ4zQV.s:1758   .debug_loc:00000000000000e4 .LLST6
     /tmp/ccbQ4zQV.s:1941   .debug_str:00000000000002fd .LASF49
     /tmp/ccbQ4zQV.s:1765   .debug_loc:0000000000000107 .LLST7
     /tmp/ccbQ4zQV.s:1943   .debug_str:0000000000000307 .LASF50
     /tmp/ccbQ4zQV.s:1772   .debug_loc:000000000000012a .LLST8
     /tmp/ccbQ4zQV.s:1931   .debug_str:00000000000002be .LASF51
     /tmp/ccbQ4zQV.s:1779   .debug_loc:000000000000014d .LLST9
     /tmp/ccbQ4zQV.s:247    .text:0000000000000110 .LVL14
     /tmp/ccbQ4zQV.s:293    .text:0000000000000138 .LVL19
     /tmp/ccbQ4zQV.s:1909   .debug_str:000000000000020e .LASF52
     /tmp/ccbQ4zQV.s:1959   .debug_str:000000000000035d .LASF53
     /tmp/ccbQ4zQV.s:186    .text:00000000000000c4 .LFB19
     /tmp/ccbQ4zQV.s:221    .text:00000000000000f4 .LFE19
     /tmp/ccbQ4zQV.s:1786   .debug_loc:0000000000000170 .LLST2
     /tmp/ccbQ4zQV.s:210    .text:00000000000000e4 .LVL11
     /tmp/ccbQ4zQV.s:1891   .debug_str:0000000000000179 .LASF54
     /tmp/ccbQ4zQV.s:1847   .debug_str:0000000000000019 .LASF55
     /tmp/ccbQ4zQV.s:1949   .debug_str:000000000000032c .LASF56
     /tmp/ccbQ4zQV.s:141    .text:0000000000000088 .LFB18
     /tmp/ccbQ4zQV.s:180    .text:00000000000000c4 .LFE18
     /tmp/ccbQ4zQV.s:156    .text:00000000000000a4 .LVL8
     /tmp/ccbQ4zQV.s:1937   .debug_str:00000000000002e6 .LASF57
     /tmp/ccbQ4zQV.s:1933   .debug_str:00000000000002c9 .LASF58
     /tmp/ccbQ4zQV.s:98     .text:0000000000000054 .LFB17
     /tmp/ccbQ4zQV.s:135    .text:0000000000000088 .LFE17
     /tmp/ccbQ4zQV.s:1800   .debug_loc:00000000000001a9 .LLST1
     /tmp/ccbQ4zQV.s:122    .text:0000000000000074 .LVL7
     /tmp/ccbQ4zQV.s:1953   .debug_str:0000000000000347 .LASF59
     /tmp/ccbQ4zQV.s:1871   .debug_str:00000000000000b4 .LASF60
     /tmp/ccbQ4zQV.s:47     .text:0000000000000020 .LFB16
     /tmp/ccbQ4zQV.s:92     .text:0000000000000054 .LFE16
     /tmp/ccbQ4zQV.s:1957   .debug_str:0000000000000358 .LASF61
     /tmp/ccbQ4zQV.s:1814   .debug_loc:00000000000001e2 .LLST0
GAS LISTING /tmp/ccbQ4zQV.s 			page 15


     /tmp/ccbQ4zQV.s:71     .text:0000000000000040 .LVL3
     /tmp/ccbQ4zQV.s:1867   .debug_str:0000000000000096 .LASF62
     /tmp/ccbQ4zQV.s:1863   .debug_str:0000000000000077 .LASF63
     /tmp/ccbQ4zQV.s:10     .text:0000000000000000 .LFB15
     /tmp/ccbQ4zQV.s:41     .text:0000000000000020 .LFE15
     /tmp/ccbQ4zQV.s:1973   .debug_str:000000000000045f .LASF64
     /tmp/ccbQ4zQV.s:381    .text:00000000000001a8 .LVL22
     /tmp/ccbQ4zQV.s:400    .text:00000000000001c0 .LVL23
     /tmp/ccbQ4zQV.s:230    .text:00000000000000f4 .LVL12
     /tmp/ccbQ4zQV.s:245    .text:0000000000000108 .LVL13
     /tmp/ccbQ4zQV.s:254    .text:0000000000000114 .LVL15
     /tmp/ccbQ4zQV.s:260    .text:0000000000000118 .LVL16
     /tmp/ccbQ4zQV.s:266    .text:000000000000011c .LVL17
     /tmp/ccbQ4zQV.s:291    .text:0000000000000130 .LVL18
     /tmp/ccbQ4zQV.s:189    .text:00000000000000c4 .LVL9
     /tmp/ccbQ4zQV.s:208    .text:00000000000000dc .LVL10
     /tmp/ccbQ4zQV.s:101    .text:0000000000000054 .LVL5
     /tmp/ccbQ4zQV.s:120    .text:000000000000006c .LVL6
     /tmp/ccbQ4zQV.s:50     .text:0000000000000020 .LVL1
     /tmp/ccbQ4zQV.s:69     .text:0000000000000038 .LVL2
     /tmp/ccbQ4zQV.s:420    .debug_info:0000000000000000 .Ldebug_info0

NO UNDEFINED SYMBOLS
