GAS LISTING /tmp/cchza5z5.s 			page 1


   1              		.file	"syscall_c.cpp"
   2              		.option pic
   3              		.option norelax
   4              		.text
   5              	.Ltext0:
   6              		.align	2
   7              		.globl	_Z13callOperationm
   9              	_Z13callOperationm:
  10              	.LFB0:
  11              		.file 1 "src/syscall_c.cpp"
   1:src/syscall_c.cpp **** //
   2:src/syscall_c.cpp **** // Created by os on 8/20/23.
   3:src/syscall_c.cpp **** //
   4:src/syscall_c.cpp **** 
   5:src/syscall_c.cpp **** #include "../h/syscall_c.hpp"
   6:src/syscall_c.cpp **** #include "../lib/console.h"
   7:src/syscall_c.cpp **** 
   8:src/syscall_c.cpp **** void callOperation(uint64 operationCode){
  12              		.loc 1 8 41
  13              		.cfi_startproc
  14              	.LVL0:
  15 0000 130101FF 		addi	sp,sp,-16
  16              		.cfi_def_cfa_offset 16
  17 0004 23348100 		sd	s0,8(sp)
  18              		.cfi_offset 8, -8
  19 0008 13040101 		addi	s0,sp,16
  20              		.cfi_def_cfa 8, 0
   9:src/syscall_c.cpp ****     __asm__ volatile ("mv a0, %0" : : "r" (operationCode));
  21              		.loc 1 9 5
  22              		.loc 1 9 59 is_stmt 0
  23              	#APP
  24              	# 9 "src/syscall_c.cpp" 1
  10              	    __asm__ volatile ("ecall");
  25              		mv a0, a0
  26              	# 0 "" 2
  27              		.loc 1 10 5 is_stmt 1
  28              		.loc 1 10 31 is_stmt 0
  29              	# 10 "src/syscall_c.cpp" 1
  11              	}
  30              		ecall
  31              	# 0 "" 2
  32              		.loc 1 11 1
  33              	#NO_APP
  34 0014 03348100 		ld	s0,8(sp)
  35              		.cfi_restore 8
  36              		.cfi_def_cfa 2, 16
  37 0018 13010101 		addi	sp,sp,16
  38              		.cfi_def_cfa_offset 0
  39 001c 67800000 		jr	ra
  40              		.cfi_endproc
  41              	.LFE0:
  43              		.align	2
  44              		.globl	_Z3retv
  46              	_Z3retv:
  47              	.LFB1:
  12:src/syscall_c.cpp **** 
  13:src/syscall_c.cpp **** uint64 ret(){
GAS LISTING /tmp/cchza5z5.s 			page 2


  48              		.loc 1 13 13 is_stmt 1
  49              		.cfi_startproc
  50 0020 130101FE 		addi	sp,sp,-32
  51              		.cfi_def_cfa_offset 32
  52 0024 233C8100 		sd	s0,24(sp)
  53              		.cfi_offset 8, -8
  54 0028 13040102 		addi	s0,sp,32
  55              		.cfi_def_cfa 8, 0
  14:src/syscall_c.cpp ****     uint64 volatile ret_val;
  56              		.loc 1 14 5
  15:src/syscall_c.cpp ****     __asm__ volatile ("mv %0, a0":"=r"(ret_val));
  57              		.loc 1 15 5
  58              		.loc 1 15 49 is_stmt 0
  59              	#APP
  60              	# 15 "src/syscall_c.cpp" 1
  16              	    return  ret_val;
  61              		mv a5, a0
  62              	# 0 "" 2
  63              	#NO_APP
  64 0030 2334F4FE 		sd	a5,-24(s0)
  65              		.loc 1 16 5 is_stmt 1
  66              		.loc 1 16 13 is_stmt 0
  67 0034 033584FE 		ld	a0,-24(s0)
  17:src/syscall_c.cpp **** }
  68              		.loc 1 17 1
  69 0038 03348101 		ld	s0,24(sp)
  70              		.cfi_restore 8
  71              		.cfi_def_cfa 2, 32
  72 003c 13010102 		addi	sp,sp,32
  73              		.cfi_def_cfa_offset 0
  74 0040 67800000 		jr	ra
  75              		.cfi_endproc
  76              	.LFE1:
  78              		.align	2
  79              		.globl	_Z9mem_allocm
  81              	_Z9mem_allocm:
  82              	.LFB2:
  18:src/syscall_c.cpp **** 
  19:src/syscall_c.cpp **** void* mem_alloc(size_t size){
  83              		.loc 1 19 29 is_stmt 1
  84              		.cfi_startproc
  85              	.LVL1:
  86 0044 130101FF 		addi	sp,sp,-16
  87              		.cfi_def_cfa_offset 16
  88 0048 23341100 		sd	ra,8(sp)
  89 004c 23308100 		sd	s0,0(sp)
  90              		.cfi_offset 1, -8
  91              		.cfi_offset 8, -16
  92 0050 13040101 		addi	s0,sp,16
  93              		.cfi_def_cfa 8, 0
  20:src/syscall_c.cpp ****     __asm__ volatile("mv a1, %0": : "r"(size));
  94              		.loc 1 20 5
  95              		.loc 1 20 47 is_stmt 0
  96              	#APP
  97              	# 20 "src/syscall_c.cpp" 1
  21              	    callOperation(1);
  98              		mv a1, a0
GAS LISTING /tmp/cchza5z5.s 			page 3


  99              	# 0 "" 2
 100              		.loc 1 21 5 is_stmt 1
 101              		.loc 1 21 18 is_stmt 0
 102              	#NO_APP
 103 0058 13051000 		li	a0,1
 104              	.LVL2:
 105 005c 97000000 		call	_Z13callOperationm
 105      E7800000 
 106              	.LVL3:
  22:src/syscall_c.cpp ****     return (void*)ret();
 107              		.loc 1 22 5 is_stmt 1
 108              		.loc 1 22 22 is_stmt 0
 109 0064 97000000 		call	_Z3retv
 109      E7800000 
 110              	.LVL4:
  23:src/syscall_c.cpp **** }
 111              		.loc 1 23 1
 112 006c 83308100 		ld	ra,8(sp)
 113              		.cfi_restore 1
 114 0070 03340100 		ld	s0,0(sp)
 115              		.cfi_restore 8
 116              		.cfi_def_cfa 2, 16
 117 0074 13010101 		addi	sp,sp,16
 118              		.cfi_def_cfa_offset 0
 119 0078 67800000 		jr	ra
 120              		.cfi_endproc
 121              	.LFE2:
 123              		.align	2
 124              		.globl	_Z8mem_freePv
 126              	_Z8mem_freePv:
 127              	.LFB3:
  24:src/syscall_c.cpp **** 
  25:src/syscall_c.cpp **** int mem_free(void* adr){
 128              		.loc 1 25 24 is_stmt 1
 129              		.cfi_startproc
 130              	.LVL5:
 131 007c 130101FF 		addi	sp,sp,-16
 132              		.cfi_def_cfa_offset 16
 133 0080 23341100 		sd	ra,8(sp)
 134 0084 23308100 		sd	s0,0(sp)
 135              		.cfi_offset 1, -8
 136              		.cfi_offset 8, -16
 137 0088 13040101 		addi	s0,sp,16
 138              		.cfi_def_cfa 8, 0
  26:src/syscall_c.cpp ****     __asm__ volatile("mv a1, %0": : "r"(adr));
 139              		.loc 1 26 5
 140              		.loc 1 26 46 is_stmt 0
 141              	#APP
 142              	# 26 "src/syscall_c.cpp" 1
  27              	    callOperation(2);
 143              		mv a1, a0
 144              	# 0 "" 2
 145              		.loc 1 27 5 is_stmt 1
 146              		.loc 1 27 18 is_stmt 0
 147              	#NO_APP
 148 0090 13052000 		li	a0,2
 149              	.LVL6:
GAS LISTING /tmp/cchza5z5.s 			page 4


 150 0094 97000000 		call	_Z13callOperationm
 150      E7800000 
 151              	.LVL7:
  28:src/syscall_c.cpp ****     return (int)ret();
 152              		.loc 1 28 5 is_stmt 1
 153              		.loc 1 28 20 is_stmt 0
 154 009c 97000000 		call	_Z3retv
 154      E7800000 
 155              	.LVL8:
  29:src/syscall_c.cpp **** }
 156              		.loc 1 29 1
 157 00a4 1B050500 		sext.w	a0,a0
 158 00a8 83308100 		ld	ra,8(sp)
 159              		.cfi_restore 1
 160 00ac 03340100 		ld	s0,0(sp)
 161              		.cfi_restore 8
 162              		.cfi_def_cfa 2, 16
 163 00b0 13010101 		addi	sp,sp,16
 164              		.cfi_def_cfa_offset 0
 165 00b4 67800000 		jr	ra
 166              		.cfi_endproc
 167              	.LFE3:
 169              		.align	2
 170              		.globl	_Z4getcv
 172              	_Z4getcv:
 173              	.LFB4:
  30:src/syscall_c.cpp **** 
  31:src/syscall_c.cpp **** char getc(){
 174              		.loc 1 31 12 is_stmt 1
 175              		.cfi_startproc
 176 00b8 130101FE 		addi	sp,sp,-32
 177              		.cfi_def_cfa_offset 32
 178 00bc 233C1100 		sd	ra,24(sp)
 179 00c0 23388100 		sd	s0,16(sp)
 180              		.cfi_offset 1, -8
 181              		.cfi_offset 8, -16
 182 00c4 13040102 		addi	s0,sp,32
 183              		.cfi_def_cfa 8, 0
  32:src/syscall_c.cpp ****     callOperation(41);
 184              		.loc 1 32 5
 185              		.loc 1 32 18 is_stmt 0
 186 00c8 13059002 		li	a0,41
 187 00cc 97000000 		call	_Z13callOperationm
 187      E7800000 
 188              	.LVL9:
  33:src/syscall_c.cpp ****     uint64 volatile ret;
 189              		.loc 1 33 5 is_stmt 1
  34:src/syscall_c.cpp ****     __asm__ volatile ("mv %0, a0" : "=r" (ret));
 190              		.loc 1 34 5
 191              		.loc 1 34 48 is_stmt 0
 192              	#APP
 193              	# 34 "src/syscall_c.cpp" 1
  35              	    return (char)ret;
 194              		mv a5, a0
 195              	# 0 "" 2
 196              	#NO_APP
 197 00d8 2334F4FE 		sd	a5,-24(s0)
GAS LISTING /tmp/cchza5z5.s 			page 5


 198              		.loc 1 35 5 is_stmt 1
 199              		.loc 1 35 18 is_stmt 0
 200 00dc 033584FE 		ld	a0,-24(s0)
  36:src/syscall_c.cpp **** }
 201              		.loc 1 36 1
 202 00e0 1375F50F 		andi	a0,a0,0xff
 203 00e4 83308101 		ld	ra,24(sp)
 204              		.cfi_restore 1
 205 00e8 03340101 		ld	s0,16(sp)
 206              		.cfi_restore 8
 207              		.cfi_def_cfa 2, 32
 208 00ec 13010102 		addi	sp,sp,32
 209              		.cfi_def_cfa_offset 0
 210 00f0 67800000 		jr	ra
 211              		.cfi_endproc
 212              	.LFE4:
 214              		.align	2
 215              		.globl	_Z4putcc
 217              	_Z4putcc:
 218              	.LFB5:
  37:src/syscall_c.cpp **** 
  38:src/syscall_c.cpp **** void putc(char c){
 219              		.loc 1 38 18 is_stmt 1
 220              		.cfi_startproc
 221              	.LVL10:
 222 00f4 130101FF 		addi	sp,sp,-16
 223              		.cfi_def_cfa_offset 16
 224 00f8 23341100 		sd	ra,8(sp)
 225 00fc 23308100 		sd	s0,0(sp)
 226              		.cfi_offset 1, -8
 227              		.cfi_offset 8, -16
 228 0100 13040101 		addi	s0,sp,16
 229              		.cfi_def_cfa 8, 0
  39:src/syscall_c.cpp ****     __asm__ volatile("mv a1,%0": : "r"(c));
 230              		.loc 1 39 5
 231              		.loc 1 39 43 is_stmt 0
 232              	#APP
 233              	# 39 "src/syscall_c.cpp" 1
  40              	    callOperation(42);
 234              		mv a1,a0
 235              	# 0 "" 2
 236              		.loc 1 40 5 is_stmt 1
 237              		.loc 1 40 18 is_stmt 0
 238              	#NO_APP
 239 0108 1305A002 		li	a0,42
 240              	.LVL11:
 241 010c 97000000 		call	_Z13callOperationm
 241      E7800000 
 242              	.LVL12:
  41:src/syscall_c.cpp **** }
 243              		.loc 1 41 1
 244 0114 83308100 		ld	ra,8(sp)
 245              		.cfi_restore 1
 246 0118 03340100 		ld	s0,0(sp)
 247              		.cfi_restore 8
 248              		.cfi_def_cfa 2, 16
 249 011c 13010101 		addi	sp,sp,16
GAS LISTING /tmp/cchza5z5.s 			page 6


 250              		.cfi_def_cfa_offset 0
 251 0120 67800000 		jr	ra
 252              		.cfi_endproc
 253              	.LFE5:
 255              	.Letext0:
 256              		.file 2 "src/../h/../lib/hw.h"
GAS LISTING /tmp/cchza5z5.s 			page 7

