GAS LISTING /tmp/cchza5z5.s 			page 1


   1              		.file	"syscall_c.cpp"
   2              		.option pic
   3              		.option norelax
   4              		.text
   5              	.Ltext0:
   6              		.align	2
   7              		.globl	_Z13callOperationm
   9              	_Z13callOperationm:
  10              	.LFB0:
  11              		.file 1 "src/syscall_c.cpp"
   1:src/syscall_c.cpp **** //
   2:src/syscall_c.cpp **** // Created by os on 8/20/23.
   3:src/syscall_c.cpp **** //
   4:src/syscall_c.cpp **** 
   5:src/syscall_c.cpp **** #include "../h/syscall_c.hpp"
   6:src/syscall_c.cpp **** #include "../lib/console.h"
   7:src/syscall_c.cpp **** 
   8:src/syscall_c.cpp **** void callOperation(uint64 operationCode){
  12              		.loc 1 8 41
  13              		.cfi_startproc
  14              	.LVL0:
  15 0000 130101FF 		addi	sp,sp,-16
  16              		.cfi_def_cfa_offset 16
  17 0004 23348100 		sd	s0,8(sp)
  18              		.cfi_offset 8, -8
  19 0008 13040101 		addi	s0,sp,16
  20              		.cfi_def_cfa 8, 0
   9:src/syscall_c.cpp ****     __asm__ volatile ("mv a0, %0" : : "r" (operationCode));
  21              		.loc 1 9 5
  22              		.loc 1 9 59 is_stmt 0
  23              	#APP
  24              	# 9 "src/syscall_c.cpp" 1
  10              	    __asm__ volatile ("ecall");
  25              		mv a0, a0
  26              	# 0 "" 2
  27              		.loc 1 10 5 is_stmt 1
  28              		.loc 1 10 31 is_stmt 0
  29              	# 10 "src/syscall_c.cpp" 1
  11              	}
  30              		ecall
  31              	# 0 "" 2
  32              		.loc 1 11 1
  33              	#NO_APP
  34 0014 03348100 		ld	s0,8(sp)
  35              		.cfi_restore 8
  36              		.cfi_def_cfa 2, 16
  37 0018 13010101 		addi	sp,sp,16
  38              		.cfi_def_cfa_offset 0
  39 001c 67800000 		jr	ra
  40              		.cfi_endproc
  41              	.LFE0:
  43              		.align	2
  44              		.globl	_Z3retv
  46              	_Z3retv:
  47              	.LFB1:
  12:src/syscall_c.cpp **** 
  13:src/syscall_c.cpp **** uint64 ret(){
GAS LISTING /tmp/cchza5z5.s 			page 2


  48              		.loc 1 13 13 is_stmt 1
  49              		.cfi_startproc
  50 0020 130101FE 		addi	sp,sp,-32
  51              		.cfi_def_cfa_offset 32
  52 0024 233C8100 		sd	s0,24(sp)
  53              		.cfi_offset 8, -8
  54 0028 13040102 		addi	s0,sp,32
  55              		.cfi_def_cfa 8, 0
  14:src/syscall_c.cpp ****     uint64 volatile ret_val;
  56              		.loc 1 14 5
  15:src/syscall_c.cpp ****     __asm__ volatile ("mv %0, a0":"=r"(ret_val));
  57              		.loc 1 15 5
  58              		.loc 1 15 49 is_stmt 0
  59              	#APP
  60              	# 15 "src/syscall_c.cpp" 1
  16              	    return  ret_val;
  61              		mv a5, a0
  62              	# 0 "" 2
  63              	#NO_APP
  64 0030 2334F4FE 		sd	a5,-24(s0)
  65              		.loc 1 16 5 is_stmt 1
  66              		.loc 1 16 13 is_stmt 0
  67 0034 033584FE 		ld	a0,-24(s0)
  17:src/syscall_c.cpp **** }
  68              		.loc 1 17 1
  69 0038 03348101 		ld	s0,24(sp)
  70              		.cfi_restore 8
  71              		.cfi_def_cfa 2, 32
  72 003c 13010102 		addi	sp,sp,32
  73              		.cfi_def_cfa_offset 0
  74 0040 67800000 		jr	ra
  75              		.cfi_endproc
  76              	.LFE1:
  78              		.align	2
  79              		.globl	_Z9mem_allocm
  81              	_Z9mem_allocm:
  82              	.LFB2:
  18:src/syscall_c.cpp **** 
  19:src/syscall_c.cpp **** void* mem_alloc(size_t size){
  83              		.loc 1 19 29 is_stmt 1
  84              		.cfi_startproc
  85              	.LVL1:
  86 0044 130101FF 		addi	sp,sp,-16
  87              		.cfi_def_cfa_offset 16
  88 0048 23341100 		sd	ra,8(sp)
  89 004c 23308100 		sd	s0,0(sp)
  90              		.cfi_offset 1, -8
  91              		.cfi_offset 8, -16
  92 0050 13040101 		addi	s0,sp,16
  93              		.cfi_def_cfa 8, 0
  20:src/syscall_c.cpp ****     __asm__ volatile("mv a1, %0": : "r"(size));
  94              		.loc 1 20 5
  95              		.loc 1 20 47 is_stmt 0
  96              	#APP
  97              	# 20 "src/syscall_c.cpp" 1
  21              	    callOperation(1);
  98              		mv a1, a0
GAS LISTING /tmp/cchza5z5.s 			page 3


  99              	# 0 "" 2
 100              		.loc 1 21 5 is_stmt 1
 101              		.loc 1 21 18 is_stmt 0
 102              	#NO_APP
 103 0058 13051000 		li	a0,1
 104              	.LVL2:
 105 005c 97000000 		call	_Z13callOperationm
 105      E7800000 
 106              	.LVL3:
  22:src/syscall_c.cpp ****     return (void*)ret();
 107              		.loc 1 22 5 is_stmt 1
 108              		.loc 1 22 22 is_stmt 0
 109 0064 97000000 		call	_Z3retv
 109      E7800000 
 110              	.LVL4:
  23:src/syscall_c.cpp **** }
 111              		.loc 1 23 1
 112 006c 83308100 		ld	ra,8(sp)
 113              		.cfi_restore 1
 114 0070 03340100 		ld	s0,0(sp)
 115              		.cfi_restore 8
 116              		.cfi_def_cfa 2, 16
 117 0074 13010101 		addi	sp,sp,16
 118              		.cfi_def_cfa_offset 0
 119 0078 67800000 		jr	ra
 120              		.cfi_endproc
 121              	.LFE2:
 123              		.align	2
 124              		.globl	_Z8mem_freePv
 126              	_Z8mem_freePv:
 127              	.LFB3:
  24:src/syscall_c.cpp **** 
  25:src/syscall_c.cpp **** int mem_free(void* adr){
 128              		.loc 1 25 24 is_stmt 1
 129              		.cfi_startproc
 130              	.LVL5:
 131 007c 130101FF 		addi	sp,sp,-16
 132              		.cfi_def_cfa_offset 16
 133 0080 23341100 		sd	ra,8(sp)
 134 0084 23308100 		sd	s0,0(sp)
 135              		.cfi_offset 1, -8
 136              		.cfi_offset 8, -16
 137 0088 13040101 		addi	s0,sp,16
 138              		.cfi_def_cfa 8, 0
  26:src/syscall_c.cpp ****     __asm__ volatile("mv a1, %0": : "r"(adr));
 139              		.loc 1 26 5
 140              		.loc 1 26 46 is_stmt 0
 141              	#APP
 142              	# 26 "src/syscall_c.cpp" 1
  27              	    callOperation(2);
 143              		mv a1, a0
 144              	# 0 "" 2
 145              		.loc 1 27 5 is_stmt 1
 146              		.loc 1 27 18 is_stmt 0
 147              	#NO_APP
 148 0090 13052000 		li	a0,2
 149              	.LVL6:
GAS LISTING /tmp/cchza5z5.s 			page 4


 150 0094 97000000 		call	_Z13callOperationm
 150      E7800000 
 151              	.LVL7:
  28:src/syscall_c.cpp ****     return (int)ret();
 152              		.loc 1 28 5 is_stmt 1
 153              		.loc 1 28 20 is_stmt 0
 154 009c 97000000 		call	_Z3retv
 154      E7800000 
 155              	.LVL8:
  29:src/syscall_c.cpp **** }
 156              		.loc 1 29 1
 157 00a4 1B050500 		sext.w	a0,a0
 158 00a8 83308100 		ld	ra,8(sp)
 159              		.cfi_restore 1
 160 00ac 03340100 		ld	s0,0(sp)
 161              		.cfi_restore 8
 162              		.cfi_def_cfa 2, 16
 163 00b0 13010101 		addi	sp,sp,16
 164              		.cfi_def_cfa_offset 0
 165 00b4 67800000 		jr	ra
 166              		.cfi_endproc
 167              	.LFE3:
 169              		.align	2
 170              		.globl	_Z4getcv
 172              	_Z4getcv:
 173              	.LFB4:
  30:src/syscall_c.cpp **** 
  31:src/syscall_c.cpp **** char getc(){
 174              		.loc 1 31 12 is_stmt 1
 175              		.cfi_startproc
 176 00b8 130101FE 		addi	sp,sp,-32
 177              		.cfi_def_cfa_offset 32
 178 00bc 233C1100 		sd	ra,24(sp)
 179 00c0 23388100 		sd	s0,16(sp)
 180              		.cfi_offset 1, -8
 181              		.cfi_offset 8, -16
 182 00c4 13040102 		addi	s0,sp,32
 183              		.cfi_def_cfa 8, 0
  32:src/syscall_c.cpp ****     callOperation(41);
 184              		.loc 1 32 5
 185              		.loc 1 32 18 is_stmt 0
 186 00c8 13059002 		li	a0,41
 187 00cc 97000000 		call	_Z13callOperationm
 187      E7800000 
 188              	.LVL9:
  33:src/syscall_c.cpp ****     uint64 volatile ret;
 189              		.loc 1 33 5 is_stmt 1
  34:src/syscall_c.cpp ****     __asm__ volatile ("mv %0, a0" : "=r" (ret));
 190              		.loc 1 34 5
 191              		.loc 1 34 48 is_stmt 0
 192              	#APP
 193              	# 34 "src/syscall_c.cpp" 1
  35              	    return (char)ret;
 194              		mv a5, a0
 195              	# 0 "" 2
 196              	#NO_APP
 197 00d8 2334F4FE 		sd	a5,-24(s0)
GAS LISTING /tmp/cchza5z5.s 			page 5


 198              		.loc 1 35 5 is_stmt 1
 199              		.loc 1 35 18 is_stmt 0
 200 00dc 033584FE 		ld	a0,-24(s0)
  36:src/syscall_c.cpp **** }
 201              		.loc 1 36 1
 202 00e0 1375F50F 		andi	a0,a0,0xff
 203 00e4 83308101 		ld	ra,24(sp)
 204              		.cfi_restore 1
 205 00e8 03340101 		ld	s0,16(sp)
 206              		.cfi_restore 8
 207              		.cfi_def_cfa 2, 32
 208 00ec 13010102 		addi	sp,sp,32
 209              		.cfi_def_cfa_offset 0
 210 00f0 67800000 		jr	ra
 211              		.cfi_endproc
 212              	.LFE4:
 214              		.align	2
 215              		.globl	_Z4putcc
 217              	_Z4putcc:
 218              	.LFB5:
  37:src/syscall_c.cpp **** 
  38:src/syscall_c.cpp **** void putc(char c){
 219              		.loc 1 38 18 is_stmt 1
 220              		.cfi_startproc
 221              	.LVL10:
 222 00f4 130101FF 		addi	sp,sp,-16
 223              		.cfi_def_cfa_offset 16
 224 00f8 23341100 		sd	ra,8(sp)
 225 00fc 23308100 		sd	s0,0(sp)
 226              		.cfi_offset 1, -8
 227              		.cfi_offset 8, -16
 228 0100 13040101 		addi	s0,sp,16
 229              		.cfi_def_cfa 8, 0
  39:src/syscall_c.cpp ****     __asm__ volatile("mv a1,%0": : "r"(c));
 230              		.loc 1 39 5
 231              		.loc 1 39 43 is_stmt 0
 232              	#APP
 233              	# 39 "src/syscall_c.cpp" 1
  40              	    callOperation(42);
 234              		mv a1,a0
 235              	# 0 "" 2
 236              		.loc 1 40 5 is_stmt 1
 237              		.loc 1 40 18 is_stmt 0
 238              	#NO_APP
 239 0108 1305A002 		li	a0,42
 240              	.LVL11:
 241 010c 97000000 		call	_Z13callOperationm
 241      E7800000 
 242              	.LVL12:
  41:src/syscall_c.cpp **** }
 243              		.loc 1 41 1
 244 0114 83308100 		ld	ra,8(sp)
 245              		.cfi_restore 1
 246 0118 03340100 		ld	s0,0(sp)
 247              		.cfi_restore 8
 248              		.cfi_def_cfa 2, 16
 249 011c 13010101 		addi	sp,sp,16
GAS LISTING /tmp/cchza5z5.s 			page 6


 250              		.cfi_def_cfa_offset 0
 251 0120 67800000 		jr	ra
 252              		.cfi_endproc
 253              	.LFE5:
 255              	.Letext0:
 256              		.file 2 "src/../h/../lib/hw.h"
GAS LISTING /tmp/cchza5z5.s 			page 7


DEFINED SYMBOLS
                            *ABS*:0000000000000000 syscall_c.cpp
     /tmp/cchza5z5.s:9      .text:0000000000000000 _Z13callOperationm
     /tmp/cchza5z5.s:13     .text:0000000000000000 .L0 
     /tmp/cchza5z5.s:15     .text:0000000000000000 .L0 
     /tmp/cchza5z5.s:16     .text:0000000000000004 .L0 
     /tmp/cchza5z5.s:18     .text:0000000000000008 .L0 
     /tmp/cchza5z5.s:20     .text:000000000000000c .L0 
     /tmp/cchza5z5.s:22     .text:000000000000000c .L0 
   src/syscall_c.cpp:9      .text:000000000000000c .L0 
     /tmp/cchza5z5.s:28     .text:0000000000000010 .L0 
   src/syscall_c.cpp:10     .text:0000000000000010 .L0 
     /tmp/cchza5z5.s:34     .text:0000000000000014 .L0 
     /tmp/cchza5z5.s:35     .text:0000000000000018 .L0 
     /tmp/cchza5z5.s:36     .text:0000000000000018 .L0 
     /tmp/cchza5z5.s:38     .text:000000000000001c .L0 
     /tmp/cchza5z5.s:40     .text:0000000000000020 .L0 
     /tmp/cchza5z5.s:46     .text:0000000000000020 _Z3retv
     /tmp/cchza5z5.s:49     .text:0000000000000020 .L0 
     /tmp/cchza5z5.s:50     .text:0000000000000020 .L0 
     /tmp/cchza5z5.s:51     .text:0000000000000024 .L0 
     /tmp/cchza5z5.s:53     .text:0000000000000028 .L0 
     /tmp/cchza5z5.s:55     .text:000000000000002c .L0 
     /tmp/cchza5z5.s:57     .text:000000000000002c .L0 
     /tmp/cchza5z5.s:58     .text:000000000000002c .L0 
   src/syscall_c.cpp:15     .text:000000000000002c .L0 
     /tmp/cchza5z5.s:66     .text:0000000000000034 .L0 
     /tmp/cchza5z5.s:67     .text:0000000000000034 .L0 
     /tmp/cchza5z5.s:69     .text:0000000000000038 .L0 
     /tmp/cchza5z5.s:70     .text:000000000000003c .L0 
     /tmp/cchza5z5.s:71     .text:000000000000003c .L0 
     /tmp/cchza5z5.s:73     .text:0000000000000040 .L0 
     /tmp/cchza5z5.s:75     .text:0000000000000044 .L0 
     /tmp/cchza5z5.s:81     .text:0000000000000044 _Z9mem_allocm
     /tmp/cchza5z5.s:84     .text:0000000000000044 .L0 
     /tmp/cchza5z5.s:86     .text:0000000000000044 .L0 
     /tmp/cchza5z5.s:87     .text:0000000000000048 .L0 
     /tmp/cchza5z5.s:90     .text:0000000000000050 .L0 
     /tmp/cchza5z5.s:91     .text:0000000000000050 .L0 
     /tmp/cchza5z5.s:93     .text:0000000000000054 .L0 
     /tmp/cchza5z5.s:95     .text:0000000000000054 .L0 
   src/syscall_c.cpp:20     .text:0000000000000054 .L0 
     /tmp/cchza5z5.s:101    .text:0000000000000058 .L0 
     /tmp/cchza5z5.s:103    .text:0000000000000058 .L0 
     /tmp/cchza5z5.s:108    .text:0000000000000064 .L0 
     /tmp/cchza5z5.s:109    .text:0000000000000064 .L0 
     /tmp/cchza5z5.s:112    .text:000000000000006c .L0 
     /tmp/cchza5z5.s:113    .text:0000000000000070 .L0 
     /tmp/cchza5z5.s:115    .text:0000000000000074 .L0 
     /tmp/cchza5z5.s:116    .text:0000000000000074 .L0 
     /tmp/cchza5z5.s:118    .text:0000000000000078 .L0 
     /tmp/cchza5z5.s:120    .text:000000000000007c .L0 
     /tmp/cchza5z5.s:126    .text:000000000000007c _Z8mem_freePv
     /tmp/cchza5z5.s:129    .text:000000000000007c .L0 
     /tmp/cchza5z5.s:131    .text:000000000000007c .L0 
     /tmp/cchza5z5.s:132    .text:0000000000000080 .L0 
     /tmp/cchza5z5.s:135    .text:0000000000000088 .L0 
GAS LISTING /tmp/cchza5z5.s 			page 8


     /tmp/cchza5z5.s:136    .text:0000000000000088 .L0 
     /tmp/cchza5z5.s:138    .text:000000000000008c .L0 
     /tmp/cchza5z5.s:140    .text:000000000000008c .L0 
   src/syscall_c.cpp:26     .text:000000000000008c .L0 
     /tmp/cchza5z5.s:146    .text:0000000000000090 .L0 
     /tmp/cchza5z5.s:148    .text:0000000000000090 .L0 
     /tmp/cchza5z5.s:153    .text:000000000000009c .L0 
     /tmp/cchza5z5.s:154    .text:000000000000009c .L0 
     /tmp/cchza5z5.s:157    .text:00000000000000a4 .L0 
     /tmp/cchza5z5.s:159    .text:00000000000000ac .L0 
     /tmp/cchza5z5.s:161    .text:00000000000000b0 .L0 
     /tmp/cchza5z5.s:162    .text:00000000000000b0 .L0 
     /tmp/cchza5z5.s:164    .text:00000000000000b4 .L0 
     /tmp/cchza5z5.s:166    .text:00000000000000b8 .L0 
     /tmp/cchza5z5.s:172    .text:00000000000000b8 _Z4getcv
     /tmp/cchza5z5.s:175    .text:00000000000000b8 .L0 
     /tmp/cchza5z5.s:176    .text:00000000000000b8 .L0 
     /tmp/cchza5z5.s:177    .text:00000000000000bc .L0 
     /tmp/cchza5z5.s:180    .text:00000000000000c4 .L0 
     /tmp/cchza5z5.s:181    .text:00000000000000c4 .L0 
     /tmp/cchza5z5.s:183    .text:00000000000000c8 .L0 
     /tmp/cchza5z5.s:185    .text:00000000000000c8 .L0 
     /tmp/cchza5z5.s:186    .text:00000000000000c8 .L0 
     /tmp/cchza5z5.s:190    .text:00000000000000d4 .L0 
     /tmp/cchza5z5.s:191    .text:00000000000000d4 .L0 
   src/syscall_c.cpp:34     .text:00000000000000d4 .L0 
     /tmp/cchza5z5.s:199    .text:00000000000000dc .L0 
     /tmp/cchza5z5.s:200    .text:00000000000000dc .L0 
     /tmp/cchza5z5.s:202    .text:00000000000000e0 .L0 
     /tmp/cchza5z5.s:204    .text:00000000000000e8 .L0 
     /tmp/cchza5z5.s:206    .text:00000000000000ec .L0 
     /tmp/cchza5z5.s:207    .text:00000000000000ec .L0 
     /tmp/cchza5z5.s:209    .text:00000000000000f0 .L0 
     /tmp/cchza5z5.s:211    .text:00000000000000f4 .L0 
     /tmp/cchza5z5.s:217    .text:00000000000000f4 _Z4putcc
     /tmp/cchza5z5.s:220    .text:00000000000000f4 .L0 
     /tmp/cchza5z5.s:222    .text:00000000000000f4 .L0 
     /tmp/cchza5z5.s:223    .text:00000000000000f8 .L0 
     /tmp/cchza5z5.s:226    .text:0000000000000100 .L0 
     /tmp/cchza5z5.s:227    .text:0000000000000100 .L0 
     /tmp/cchza5z5.s:229    .text:0000000000000104 .L0 
     /tmp/cchza5z5.s:231    .text:0000000000000104 .L0 
   src/syscall_c.cpp:39     .text:0000000000000104 .L0 
     /tmp/cchza5z5.s:237    .text:0000000000000108 .L0 
     /tmp/cchza5z5.s:239    .text:0000000000000108 .L0 
     /tmp/cchza5z5.s:244    .text:0000000000000114 .L0 
     /tmp/cchza5z5.s:245    .text:0000000000000118 .L0 
     /tmp/cchza5z5.s:247    .text:000000000000011c .L0 
     /tmp/cchza5z5.s:248    .text:000000000000011c .L0 
     /tmp/cchza5z5.s:250    .text:0000000000000120 .L0 
     /tmp/cchza5z5.s:252    .text:0000000000000124 .L0 
     /tmp/cchza5z5.s:257    .text:0000000000000124 .L0 
     /tmp/cchza5z5.s:561    .debug_abbrev:0000000000000000 .Ldebug_abbrev0
     /tmp/cchza5z5.s:1027   .debug_str:00000000000000c2 .LASF27
     /tmp/cchza5z5.s:1065   .debug_str:0000000000000274 .LASF28
     /tmp/cchza5z5.s:1051   .debug_str:000000000000021c .LASF29
     /tmp/cchza5z5.s:5      .text:0000000000000000 .Ltext0
GAS LISTING /tmp/cchza5z5.s 			page 9


     /tmp/cchza5z5.s:255    .text:0000000000000124 .Letext0
     /tmp/cchza5z5.s:997    .debug_line:0000000000000000 .Ldebug_line0
     /tmp/cchza5z5.s:1035   .debug_str:00000000000001af .LASF0
     /tmp/cchza5z5.s:1021   .debug_str:000000000000009a .LASF1
     /tmp/cchza5z5.s:1015   .debug_str:0000000000000075 .LASF2
     /tmp/cchza5z5.s:1007   .debug_str:0000000000000036 .LASF4
     /tmp/cchza5z5.s:1019   .debug_str:0000000000000088 .LASF3
     /tmp/cchza5z5.s:1003   .debug_str:0000000000000021 .LASF5
     /tmp/cchza5z5.s:1001   .debug_str:000000000000000e .LASF6
     /tmp/cchza5z5.s:1011   .debug_str:0000000000000053 .LASF7
     /tmp/cchza5z5.s:1043   .debug_str:00000000000001dd .LASF8
     /tmp/cchza5z5.s:1005   .debug_str:0000000000000028 .LASF9
     /tmp/cchza5z5.s:1067   .debug_str:0000000000000286 .LASF10
     /tmp/cchza5z5.s:1013   .debug_str:0000000000000066 .LASF11
     /tmp/cchza5z5.s:1057   .debug_str:000000000000024c .LASF12
     /tmp/cchza5z5.s:1047   .debug_str:0000000000000203 .LASF13
     /tmp/cchza5z5.s:1025   .debug_str:00000000000000b6 .LASF14
     /tmp/cchza5z5.s:1009   .debug_str:000000000000003d .LASF15
     /tmp/cchza5z5.s:1045   .debug_str:00000000000001ed .LASF16
     /tmp/cchza5z5.s:1053   .debug_str:000000000000023f .LASF30
     /tmp/cchza5z5.s:1023   .debug_str:00000000000000ad .LASF31
     /tmp/cchza5z5.s:218    .text:00000000000000f4 .LFB5
     /tmp/cchza5z5.s:253    .text:0000000000000124 .LFE5
     /tmp/cchza5z5.s:942    .debug_loc:0000000000000000 .LLST2
     /tmp/cchza5z5.s:242    .text:0000000000000114 .LVL12
     /tmp/cchza5z5.s:1039   .debug_str:00000000000001ca .LASF17
     /tmp/cchza5z5.s:1017   .debug_str:0000000000000083 .LASF18
     /tmp/cchza5z5.s:1061   .debug_str:0000000000000266 .LASF20
     /tmp/cchza5z5.s:173    .text:00000000000000b8 .LFB4
     /tmp/cchza5z5.s:212    .text:00000000000000f4 .LFE4
     /tmp/cchza5z5.s:188    .text:00000000000000d4 .LVL9
     /tmp/cchza5z5.s:1049   .debug_str:0000000000000213 .LASF19
     /tmp/cchza5z5.s:999    .debug_str:0000000000000000 .LASF21
     /tmp/cchza5z5.s:127    .text:000000000000007c .LFB3
     /tmp/cchza5z5.s:167    .text:00000000000000b8 .LFE3
     /tmp/cchza5z5.s:956    .debug_loc:0000000000000039 .LLST1
     /tmp/cchza5z5.s:151    .text:000000000000009c .LVL7
     /tmp/cchza5z5.s:155    .text:00000000000000a4 .LVL8
     /tmp/cchza5z5.s:1059   .debug_str:000000000000025c .LASF22
     /tmp/cchza5z5.s:1033   .debug_str:00000000000001a1 .LASF23
     /tmp/cchza5z5.s:82     .text:0000000000000044 .LFB2
     /tmp/cchza5z5.s:121    .text:000000000000007c .LFE2
     /tmp/cchza5z5.s:1063   .debug_str:000000000000026f .LASF24
     /tmp/cchza5z5.s:970    .debug_loc:0000000000000072 .LLST0
     /tmp/cchza5z5.s:106    .text:0000000000000064 .LVL3
     /tmp/cchza5z5.s:110    .text:000000000000006c .LVL4
     /tmp/cchza5z5.s:1055   .debug_str:0000000000000244 .LASF32
     /tmp/cchza5z5.s:47     .text:0000000000000020 .LFB1
     /tmp/cchza5z5.s:76     .text:0000000000000044 .LFE1
     /tmp/cchza5z5.s:1029   .debug_str:0000000000000186 .LASF25
     /tmp/cchza5z5.s:1037   .debug_str:00000000000001bc .LASF33
     /tmp/cchza5z5.s:1031   .debug_str:000000000000018e .LASF34
     /tmp/cchza5z5.s:10     .text:0000000000000000 .LFB0
     /tmp/cchza5z5.s:41     .text:0000000000000020 .LFE0
     /tmp/cchza5z5.s:1041   .debug_str:00000000000001cf .LASF26
     /tmp/cchza5z5.s:221    .text:00000000000000f4 .LVL10
     /tmp/cchza5z5.s:240    .text:000000000000010c .LVL11
GAS LISTING /tmp/cchza5z5.s 			page 10


     /tmp/cchza5z5.s:130    .text:000000000000007c .LVL5
     /tmp/cchza5z5.s:149    .text:0000000000000094 .LVL6
     /tmp/cchza5z5.s:85     .text:0000000000000044 .LVL1
     /tmp/cchza5z5.s:104    .text:000000000000005c .LVL2
     /tmp/cchza5z5.s:258    .debug_info:0000000000000000 .Ldebug_info0

NO UNDEFINED SYMBOLS
