GAS LISTING /tmp/cciHVlBk.s 			page 1


   1              		.file	"syscall_cpp.cpp"
   2              		.option pic
   3              		.option norelax
   4              		.text
   5              	.Ltext0:
   6              		.section	.text._ZN6Thread3runEv,"axG",@progbits,_ZN6Thread3runEv,comdat
   7              		.align	2
   8              		.weak	_ZN6Thread3runEv
  10              	_ZN6Thread3runEv:
  11              	.LFB0:
  12              		.file 1 "src/../h/syscall_cpp.hpp"
   1:src/../h/syscall_cpp.hpp **** //
   2:src/../h/syscall_cpp.hpp **** // Created by os on 9/4/23.
   3:src/../h/syscall_cpp.hpp **** //
   4:src/../h/syscall_cpp.hpp **** 
   5:src/../h/syscall_cpp.hpp **** #ifndef PROJECT_BASE_V1_1_SYSCALL_CPP_HPP
   6:src/../h/syscall_cpp.hpp **** #define PROJECT_BASE_V1_1_SYSCALL_CPP_HPP
   7:src/../h/syscall_cpp.hpp **** 
   8:src/../h/syscall_cpp.hpp **** #include "syscall_c.hpp"
   9:src/../h/syscall_cpp.hpp **** #include "../lib/hw.h"
  10:src/../h/syscall_cpp.hpp **** 
  11:src/../h/syscall_cpp.hpp **** void* operator new(size_t);
  12:src/../h/syscall_cpp.hpp **** void operator delete(void*);
  13:src/../h/syscall_cpp.hpp **** class Thread {
  14:src/../h/syscall_cpp.hpp **** public:
  15:src/../h/syscall_cpp.hpp ****     Thread (void (*body)(void*), void* arg);
  16:src/../h/syscall_cpp.hpp ****     virtual ~Thread ();
  17:src/../h/syscall_cpp.hpp ****     int start ();
  18:src/../h/syscall_cpp.hpp ****     void join();
  19:src/../h/syscall_cpp.hpp ****     static void dispatch ();
  20:src/../h/syscall_cpp.hpp ****     //static int sleep (time_t);
  21:src/../h/syscall_cpp.hpp **** protected:
  22:src/../h/syscall_cpp.hpp ****     Thread ();
  23:src/../h/syscall_cpp.hpp ****     virtual void run () {}
  13              		.loc 1 23 18
  14              		.cfi_startproc
  15              	.LVL0:
  16 0000 130101FF 		addi	sp,sp,-16
  17              		.cfi_def_cfa_offset 16
  18 0004 23348100 		sd	s0,8(sp)
  19              		.cfi_offset 8, -8
  20 0008 13040101 		addi	s0,sp,16
  21              		.cfi_def_cfa 8, 0
  22              		.loc 1 23 26 is_stmt 0
  23 000c 03348100 		ld	s0,8(sp)
  24              		.cfi_restore 8
  25              		.cfi_def_cfa 2, 16
  26 0010 13010101 		addi	sp,sp,16
  27              		.cfi_def_cfa_offset 0
  28 0014 67800000 		jr	ra
  29              		.cfi_endproc
  30              	.LFE0:
  32              		.text
  33              		.align	2
  34              		.globl	_Znwm
  36              	_Znwm:
  37              	.LFB15:
GAS LISTING /tmp/cciHVlBk.s 			page 2


  38              		.file 2 "src/syscall_cpp.cpp"
   1:src/syscall_cpp.cpp **** //
   2:src/syscall_cpp.cpp **** // Created by os on 9/4/23.
   3:src/syscall_cpp.cpp **** //
   4:src/syscall_cpp.cpp **** 
   5:src/syscall_cpp.cpp **** #include "../h/syscall_cpp.hpp"
   6:src/syscall_cpp.cpp **** #include "../h/syscall_c.hpp"
   7:src/syscall_cpp.cpp **** #include "../h/_thread.hpp"
   8:src/syscall_cpp.cpp **** #include "../h/MemoryAllocator.hpp"
   9:src/syscall_cpp.cpp **** 
  10:src/syscall_cpp.cpp **** void *operator new(size_t n){
  39              		.loc 2 10 29 is_stmt 1
  40              		.cfi_startproc
  41              	.LVL1:
  42 0000 130101FF 		addi	sp,sp,-16
  43              		.cfi_def_cfa_offset 16
  44 0004 23341100 		sd	ra,8(sp)
  45 0008 23308100 		sd	s0,0(sp)
  46              		.cfi_offset 1, -8
  47              		.cfi_offset 8, -16
  48 000c 13040101 		addi	s0,sp,16
  49              		.cfi_def_cfa 8, 0
  11:src/syscall_cpp.cpp ****     return mem_alloc(n);
  50              		.loc 2 11 5
  51              		.loc 2 11 21 is_stmt 0
  52 0010 97000000 		call	_Z9mem_allocm@plt
  52      E7800000 
  53              	.LVL2:
  12:src/syscall_cpp.cpp **** }
  54              		.loc 2 12 1
  55 0018 83308100 		ld	ra,8(sp)
  56              		.cfi_restore 1
  57 001c 03340100 		ld	s0,0(sp)
  58              		.cfi_restore 8
  59              		.cfi_def_cfa 2, 16
  60 0020 13010101 		addi	sp,sp,16
  61              		.cfi_def_cfa_offset 0
  62 0024 67800000 		jr	ra
  63              		.cfi_endproc
  64              	.LFE15:
  66              		.align	2
  67              		.globl	_ZdlPv
  69              	_ZdlPv:
  70              	.LFB16:
  13:src/syscall_cpp.cpp **** 
  14:src/syscall_cpp.cpp **** void operator delete(void *p) {
  71              		.loc 2 14 31 is_stmt 1
  72              		.cfi_startproc
  73              	.LVL3:
  74 0028 130101FF 		addi	sp,sp,-16
  75              		.cfi_def_cfa_offset 16
  76 002c 23341100 		sd	ra,8(sp)
  77 0030 23308100 		sd	s0,0(sp)
  78              		.cfi_offset 1, -8
  79              		.cfi_offset 8, -16
  80 0034 13040101 		addi	s0,sp,16
  81              		.cfi_def_cfa 8, 0
GAS LISTING /tmp/cciHVlBk.s 			page 3


  15:src/syscall_cpp.cpp ****     mem_free(p);
  82              		.loc 2 15 5
  83              		.loc 2 15 13 is_stmt 0
  84 0038 97000000 		call	_Z8mem_freePv@plt
  84      E7800000 
  85              	.LVL4:
  16:src/syscall_cpp.cpp **** }
  86              		.loc 2 16 1
  87 0040 83308100 		ld	ra,8(sp)
  88              		.cfi_restore 1
  89 0044 03340100 		ld	s0,0(sp)
  90              		.cfi_restore 8
  91              		.cfi_def_cfa 2, 16
  92 0048 13010101 		addi	sp,sp,16
  93              		.cfi_def_cfa_offset 0
  94 004c 67800000 		jr	ra
  95              		.cfi_endproc
  96              	.LFE16:
  98              		.align	2
  99              		.globl	_ZN6ThreadD2Ev
 101              	_ZN6ThreadD2Ev:
 102              	.LFB18:
  17:src/syscall_cpp.cpp **** 
  18:src/syscall_cpp.cpp **** Thread::~Thread() {
 103              		.loc 2 18 1 is_stmt 1
 104              		.cfi_startproc
 105              		.cfi_personality 0x9b,DW.ref.__gxx_personality_v0
 106              		.cfi_lsda 0x1b,.LLSDA18
 107              	.LVL5:
 108 0050 130101FE 		addi	sp,sp,-32
 109              		.cfi_def_cfa_offset 32
 110 0054 233C1100 		sd	ra,24(sp)
 111 0058 23388100 		sd	s0,16(sp)
 112 005c 23349100 		sd	s1,8(sp)
 113              		.cfi_offset 1, -8
 114              		.cfi_offset 8, -16
 115              		.cfi_offset 9, -24
 116 0060 13040102 		addi	s0,sp,32
 117              		.cfi_def_cfa 8, 0
 118              	.LBB6:
 119              		.loc 2 18 17 is_stmt 0
 120 0064 97070000 		lla	a5,_ZTV6Thread+16
 120      93870700 
 121 006c 2330F500 		sd	a5,0(a0)
  19:src/syscall_cpp.cpp ****     delete myHandle;
 122              		.loc 2 19 5 is_stmt 1
 123              		.loc 2 19 12 is_stmt 0
 124 0070 83348500 		ld	s1,8(a0)
 125              		.loc 2 19 20
 126 0074 63800402 		beqz	s1,.L7
 127              	.LVL6:
 128              	.LBB7:
 129              	.LBB8:
 130              		.file 3 "src/../h/_thread.hpp"
   1:src/../h/_thread.hpp **** //
   2:src/../h/_thread.hpp **** // Created by os on 9/3/23.
   3:src/../h/_thread.hpp **** //
GAS LISTING /tmp/cciHVlBk.s 			page 4


   4:src/../h/_thread.hpp **** 
   5:src/../h/_thread.hpp **** #ifndef PROJECT_BASE_V1_1__THREAD_HPP
   6:src/../h/_thread.hpp **** #define PROJECT_BASE_V1_1__THREAD_HPP
   7:src/../h/_thread.hpp **** 
   8:src/../h/_thread.hpp **** #include "../lib/hw.h"
   9:src/../h/_thread.hpp **** #include "MemoryAllocator.hpp"
  10:src/../h/_thread.hpp **** #include "../h/scheduler.hpp"
  11:src/../h/_thread.hpp **** #include "../h/syscall_c.hpp"
  12:src/../h/_thread.hpp **** #include "../lib/console.h"
  13:src/../h/_thread.hpp **** #include "../h/syscall_cpp.hpp"
  14:src/../h/_thread.hpp **** 
  15:src/../h/_thread.hpp **** void * operator new[](size_t n);
  16:src/../h/_thread.hpp **** 
  17:src/../h/_thread.hpp **** void operator delete[](void *p);
  18:src/../h/_thread.hpp **** 
  19:src/../h/_thread.hpp **** class _thread {
  20:src/../h/_thread.hpp **** public:
  21:src/../h/_thread.hpp ****     struct Context {
  22:src/../h/_thread.hpp ****         uint64 ra;
  23:src/../h/_thread.hpp ****         uint64 sp;
  24:src/../h/_thread.hpp ****     };
  25:src/../h/_thread.hpp ****     using Body = void (*)(void*);
  26:src/../h/_thread.hpp **** 
  27:src/../h/_thread.hpp ****     static _thread *mainThread;
  28:src/../h/_thread.hpp ****     static _thread *running;
  29:src/../h/_thread.hpp **** 
  30:src/../h/_thread.hpp ****     static void thread_dispatch();
  31:src/../h/_thread.hpp ****     static int thread_exit();
  32:src/../h/_thread.hpp ****     static _thread* thread_create(Body body, void *args, void *stackSpace);
  33:src/../h/_thread.hpp ****     static void thread_wrapper();
  34:src/../h/_thread.hpp ****     static void thread_join(thread_t handle);
  35:src/../h/_thread.hpp ****     static void contextSwitch(Context *current, Context *next);
  36:src/../h/_thread.hpp **** 
  37:src/../h/_thread.hpp ****     ~_thread() { delete[] stack; }
 131              		.loc 3 37 18 is_stmt 1
 132              		.loc 3 37 27 is_stmt 0
 133 0078 03B50402 		ld	a0,32(s1)
 134              	.LVL7:
 135              		.loc 3 37 32
 136 007c 63060500 		beqz	a0,.L9
 137              		.loc 3 37 27
 138 0080 97000000 		call	_ZdaPv@plt
 138      E7800000 
 139              	.LVL8:
 140              	.L9:
 141              	.LBE8:
 142              	.LBE7:
 143              		.loc 2 19 12
 144 0088 13850400 		mv	a0,s1
 145 008c 97000000 		call	_ZdlPv
 145      E7800000 
 146              	.LVL9:
 147              	.L7:
 148              	.LBE6:
  20:src/syscall_cpp.cpp **** }
 149              		.loc 2 20 1
 150 0094 83308101 		ld	ra,24(sp)
GAS LISTING /tmp/cciHVlBk.s 			page 5


 151              		.cfi_restore 1
 152 0098 03340101 		ld	s0,16(sp)
 153              		.cfi_restore 8
 154              		.cfi_def_cfa 2, 32
 155 009c 83348100 		ld	s1,8(sp)
 156              		.cfi_restore 9
 157 00a0 13010102 		addi	sp,sp,32
 158              		.cfi_def_cfa_offset 0
 159 00a4 67800000 		jr	ra
 160              		.cfi_endproc
 161              	.LFE18:
 162              		.globl	__gxx_personality_v0
 163              		.section	.gcc_except_table,"a",@progbits
 164              	.LLSDA18:
 165 0000 FF       		.byte	0xff
 166 0001 FF       		.byte	0xff
 167 0002 03       		.byte	0x3
 168 0003 00       		.byte	0
 169              		.text
 171              		.globl	_ZN6ThreadD1Ev
 172              		.set	_ZN6ThreadD1Ev,_ZN6ThreadD2Ev
 173              		.align	2
 174              		.globl	_ZN6ThreadD0Ev
 176              	_ZN6ThreadD0Ev:
 177              	.LFB20:
  18:src/syscall_cpp.cpp ****     delete myHandle;
 178              		.loc 2 18 1 is_stmt 1
 179              		.cfi_startproc
 180              	.LVL10:
 181 00a8 130101FE 		addi	sp,sp,-32
 182              		.cfi_def_cfa_offset 32
 183 00ac 233C1100 		sd	ra,24(sp)
 184 00b0 23388100 		sd	s0,16(sp)
 185 00b4 23349100 		sd	s1,8(sp)
 186              		.cfi_offset 1, -8
 187              		.cfi_offset 8, -16
 188              		.cfi_offset 9, -24
 189 00b8 13040102 		addi	s0,sp,32
 190              		.cfi_def_cfa 8, 0
 191 00bc 93040500 		mv	s1,a0
 192              		.loc 2 20 1 is_stmt 0
 193 00c0 97000000 		call	_ZN6ThreadD1Ev
 193      E7800000 
 194              	.LVL11:
 195 00c8 13850400 		mv	a0,s1
 196 00cc 97000000 		call	_ZdlPv
 196      E7800000 
 197              	.LVL12:
 198 00d4 83308101 		ld	ra,24(sp)
 199              		.cfi_restore 1
 200 00d8 03340101 		ld	s0,16(sp)
 201              		.cfi_restore 8
 202              		.cfi_def_cfa 2, 32
 203 00dc 83348100 		ld	s1,8(sp)
 204              		.cfi_restore 9
 205              	.LVL13:
 206 00e0 13010102 		addi	sp,sp,32
GAS LISTING /tmp/cciHVlBk.s 			page 6


 207              		.cfi_def_cfa_offset 0
 208 00e4 67800000 		jr	ra
 209              		.cfi_endproc
 210              	.LFE20:
 212              		.align	2
 213              		.globl	_ZN6Thread8dispatchEv
 215              	_ZN6Thread8dispatchEv:
 216              	.LFB21:
  21:src/syscall_cpp.cpp **** void Thread::dispatch() {
 217              		.loc 2 21 25 is_stmt 1
 218              		.cfi_startproc
 219 00e8 130101FF 		addi	sp,sp,-16
 220              		.cfi_def_cfa_offset 16
 221 00ec 23341100 		sd	ra,8(sp)
 222 00f0 23308100 		sd	s0,0(sp)
 223              		.cfi_offset 1, -8
 224              		.cfi_offset 8, -16
 225 00f4 13040101 		addi	s0,sp,16
 226              		.cfi_def_cfa 8, 0
  22:src/syscall_cpp.cpp ****     thread_dispatch();
 227              		.loc 2 22 5
 228              		.loc 2 22 20 is_stmt 0
 229 00f8 97000000 		call	_Z15thread_dispatchv@plt
 229      E7800000 
 230              	.LVL14:
  23:src/syscall_cpp.cpp **** }
 231              		.loc 2 23 1
 232 0100 83308100 		ld	ra,8(sp)
 233              		.cfi_restore 1
 234 0104 03340100 		ld	s0,0(sp)
 235              		.cfi_restore 8
 236              		.cfi_def_cfa 2, 16
 237 0108 13010101 		addi	sp,sp,16
 238              		.cfi_def_cfa_offset 0
 239 010c 67800000 		jr	ra
 240              		.cfi_endproc
 241              	.LFE21:
 243              		.align	2
 244              		.globl	_ZN6ThreadC2EPFvPvES0_
 246              	_ZN6ThreadC2EPFvPvES0_:
 247              	.LFB23:
  24:src/syscall_cpp.cpp **** Thread::Thread(void (*body)(void *), void *arg) {
 248              		.loc 2 24 1 is_stmt 1
 249              		.cfi_startproc
 250              	.LVL15:
 251 0110 130101FF 		addi	sp,sp,-16
 252              		.cfi_def_cfa_offset 16
 253 0114 23341100 		sd	ra,8(sp)
 254 0118 23308100 		sd	s0,0(sp)
 255              		.cfi_offset 1, -8
 256              		.cfi_offset 8, -16
 257 011c 13040101 		addi	s0,sp,16
 258              		.cfi_def_cfa 8, 0
 259              	.LBB9:
 260              		.loc 2 24 47 is_stmt 0
 261 0120 97070000 		lla	a5,_ZTV6Thread+16
 261      93870700 
GAS LISTING /tmp/cciHVlBk.s 			page 7


 262 0128 2330F500 		sd	a5,0(a0)
  25:src/syscall_cpp.cpp ****     thread_create(&myHandle, body, arg);
 263              		.loc 2 25 5 is_stmt 1
 264              		.loc 2 25 18 is_stmt 0
 265 012c 13058500 		addi	a0,a0,8
 266              	.LVL16:
 267 0130 97000000 		call	_Z13thread_createPP7_threadPFvPvES2_@plt
 267      E7800000 
 268              	.LVL17:
 269              	.LBE9:
  26:src/syscall_cpp.cpp **** }
 270              		.loc 2 26 1
 271 0138 83308100 		ld	ra,8(sp)
 272              		.cfi_restore 1
 273 013c 03340100 		ld	s0,0(sp)
 274              		.cfi_restore 8
 275              		.cfi_def_cfa 2, 16
 276 0140 13010101 		addi	sp,sp,16
 277              		.cfi_def_cfa_offset 0
 278 0144 67800000 		jr	ra
 279              		.cfi_endproc
 280              	.LFE23:
 282              		.globl	_ZN6ThreadC1EPFvPvES0_
 283              		.set	_ZN6ThreadC1EPFvPvES0_,_ZN6ThreadC2EPFvPvES0_
 284              		.align	2
 285              		.globl	_ZN6ThreadC2Ev
 287              	_ZN6ThreadC2Ev:
 288              	.LFB26:
  27:src/syscall_cpp.cpp **** Thread::Thread() {
 289              		.loc 2 27 1 is_stmt 1
 290              		.cfi_startproc
 291              	.LVL18:
 292 0148 130101FF 		addi	sp,sp,-16
 293              		.cfi_def_cfa_offset 16
 294 014c 23341100 		sd	ra,8(sp)
 295 0150 23308100 		sd	s0,0(sp)
 296              		.cfi_offset 1, -8
 297              		.cfi_offset 8, -16
 298 0154 13040101 		addi	s0,sp,16
 299              		.cfi_def_cfa 8, 0
 300              	.LBB10:
 301              		.loc 2 27 16 is_stmt 0
 302 0158 97070000 		lla	a5,_ZTV6Thread+16
 302      93870700 
 303 0160 2330F500 		sd	a5,0(a0)
  28:src/syscall_cpp.cpp ****     thread_create(&myHandle, nullptr, nullptr);
 304              		.loc 2 28 5 is_stmt 1
 305              		.loc 2 28 18 is_stmt 0
 306 0164 13060000 		li	a2,0
 307 0168 93050000 		li	a1,0
 308 016c 13058500 		addi	a0,a0,8
 309              	.LVL19:
 310 0170 97000000 		call	_Z13thread_createPP7_threadPFvPvES2_@plt
 310      E7800000 
 311              	.LVL20:
 312              	.LBE10:
  29:src/syscall_cpp.cpp **** }
GAS LISTING /tmp/cciHVlBk.s 			page 8


 313              		.loc 2 29 1
 314 0178 83308100 		ld	ra,8(sp)
 315              		.cfi_restore 1
 316 017c 03340100 		ld	s0,0(sp)
 317              		.cfi_restore 8
 318              		.cfi_def_cfa 2, 16
 319 0180 13010101 		addi	sp,sp,16
 320              		.cfi_def_cfa_offset 0
 321 0184 67800000 		jr	ra
 322              		.cfi_endproc
 323              	.LFE26:
 325              		.globl	_ZN6ThreadC1Ev
 326              		.set	_ZN6ThreadC1Ev,_ZN6ThreadC2Ev
 327              		.align	2
 328              		.globl	_ZN6Thread4joinEv
 330              	_ZN6Thread4joinEv:
 331              	.LFB28:
  30:src/syscall_cpp.cpp **** 
  31:src/syscall_cpp.cpp **** void Thread::join() {
 332              		.loc 2 31 21 is_stmt 1
 333              		.cfi_startproc
 334              	.LVL21:
 335 0188 130101FF 		addi	sp,sp,-16
 336              		.cfi_def_cfa_offset 16
 337 018c 23341100 		sd	ra,8(sp)
 338 0190 23308100 		sd	s0,0(sp)
 339              		.cfi_offset 1, -8
 340              		.cfi_offset 8, -16
 341 0194 13040101 		addi	s0,sp,16
 342              		.cfi_def_cfa 8, 0
  32:src/syscall_cpp.cpp ****     thread_join(this->myHandle);
 343              		.loc 2 32 5
 344              		.loc 2 32 16 is_stmt 0
 345 0198 03358500 		ld	a0,8(a0)
 346              	.LVL22:
 347 019c 97000000 		call	_Z11thread_joinP7_thread@plt
 347      E7800000 
 348              	.LVL23:
  33:src/syscall_cpp.cpp **** }
 349              		.loc 2 33 1
 350 01a4 83308100 		ld	ra,8(sp)
 351              		.cfi_restore 1
 352 01a8 03340100 		ld	s0,0(sp)
 353              		.cfi_restore 8
 354              		.cfi_def_cfa 2, 16
 355 01ac 13010101 		addi	sp,sp,16
 356              		.cfi_def_cfa_offset 0
 357 01b0 67800000 		jr	ra
 358              		.cfi_endproc
 359              	.LFE28:
 361              		.align	2
 362              		.globl	_ZN6Thread5startEv
 364              	_ZN6Thread5startEv:
 365              	.LFB29:
  34:src/syscall_cpp.cpp **** int Thread::start() {
 366              		.loc 2 34 21 is_stmt 1
 367              		.cfi_startproc
GAS LISTING /tmp/cciHVlBk.s 			page 9


 368              	.LVL24:
 369 01b4 130101FF 		addi	sp,sp,-16
 370              		.cfi_def_cfa_offset 16
 371 01b8 23341100 		sd	ra,8(sp)
 372 01bc 23308100 		sd	s0,0(sp)
 373              		.cfi_offset 1, -8
 374              		.cfi_offset 8, -16
 375 01c0 13040101 		addi	s0,sp,16
 376              		.cfi_def_cfa 8, 0
  35:src/syscall_cpp.cpp ****     Scheduler::put(myHandle);
 377              		.loc 2 35 5
 378              		.loc 2 35 19 is_stmt 0
 379 01c4 03358500 		ld	a0,8(a0)
 380              	.LVL25:
 381 01c8 97000000 		call	_ZN9Scheduler3putEP7_thread@plt
 381      E7800000 
 382              	.LVL26:
  36:src/syscall_cpp.cpp ****     return 1;
 383              		.loc 2 36 5 is_stmt 1
  37:src/syscall_cpp.cpp **** }
 384              		.loc 2 37 1 is_stmt 0
 385 01d0 13051000 		li	a0,1
 386 01d4 83308100 		ld	ra,8(sp)
 387              		.cfi_restore 1
 388 01d8 03340100 		ld	s0,0(sp)
 389              		.cfi_restore 8
 390              		.cfi_def_cfa 2, 16
 391 01dc 13010101 		addi	sp,sp,16
 392              		.cfi_def_cfa_offset 0
 393 01e0 67800000 		jr	ra
 394              		.cfi_endproc
 395              	.LFE29:
 397              		.weak	_ZTV6Thread
 398              		.section	.data.rel.ro.local._ZTV6Thread,"awG",@progbits,_ZTV6Thread,comdat
 399              		.align	3
 402              	_ZTV6Thread:
 403 0000 00000000 		.dword	0
 403      00000000 
 404 0008 00000000 		.dword	0
 404      00000000 
 405 0010 00000000 		.dword	_ZN6ThreadD1Ev
 405      00000000 
 406 0018 00000000 		.dword	_ZN6ThreadD0Ev
 406      00000000 
 407 0020 00000000 		.dword	_ZN6Thread3runEv
 407      00000000 
 408              		.text
 409              	.Letext0:
 410              		.file 4 "src/../h/../lib/hw.h"
 411              		.file 5 "src/../h/syscall_c.hpp"
 412              		.file 6 "src/../h/../h/scheduler.hpp"
 2670              		.align	3
 2673              	DW.ref.__gxx_personality_v0:
 2674 0000 00000000 		.dword	__gxx_personality_v0
 2674      00000000 
 2675              		.ident	"GCC: (Ubuntu 9.4.0-1ubuntu1~20.04) 9.4.0"
 2676              		.section	.note.GNU-stack,"",@progbits
GAS LISTING /tmp/cciHVlBk.s 			page 10


GAS LISTING /tmp/cciHVlBk.s 			page 11


DEFINED SYMBOLS
                            *ABS*:0000000000000000 syscall_cpp.cpp
     /tmp/cciHVlBk.s:10     .text._ZN6Thread3runEv:0000000000000000 _ZN6Thread3runEv
     /tmp/cciHVlBk.s:14     .text._ZN6Thread3runEv:0000000000000000 .L0 
     /tmp/cciHVlBk.s:16     .text._ZN6Thread3runEv:0000000000000000 .L0 
     /tmp/cciHVlBk.s:17     .text._ZN6Thread3runEv:0000000000000004 .L0 
     /tmp/cciHVlBk.s:19     .text._ZN6Thread3runEv:0000000000000008 .L0 
     /tmp/cciHVlBk.s:21     .text._ZN6Thread3runEv:000000000000000c .L0 
     /tmp/cciHVlBk.s:23     .text._ZN6Thread3runEv:000000000000000c .L0 
     /tmp/cciHVlBk.s:24     .text._ZN6Thread3runEv:0000000000000010 .L0 
     /tmp/cciHVlBk.s:25     .text._ZN6Thread3runEv:0000000000000010 .L0 
     /tmp/cciHVlBk.s:27     .text._ZN6Thread3runEv:0000000000000014 .L0 
     /tmp/cciHVlBk.s:29     .text._ZN6Thread3runEv:0000000000000018 .L0 
     /tmp/cciHVlBk.s:36     .text:0000000000000000 _Znwm
     /tmp/cciHVlBk.s:40     .text:0000000000000000 .L0 
     /tmp/cciHVlBk.s:42     .text:0000000000000000 .L0 
     /tmp/cciHVlBk.s:43     .text:0000000000000004 .L0 
     /tmp/cciHVlBk.s:46     .text:000000000000000c .L0 
     /tmp/cciHVlBk.s:47     .text:000000000000000c .L0 
     /tmp/cciHVlBk.s:49     .text:0000000000000010 .L0 
     /tmp/cciHVlBk.s:51     .text:0000000000000010 .L0 
     /tmp/cciHVlBk.s:52     .text:0000000000000010 .L0 
     /tmp/cciHVlBk.s:55     .text:0000000000000018 .L0 
     /tmp/cciHVlBk.s:56     .text:000000000000001c .L0 
     /tmp/cciHVlBk.s:58     .text:0000000000000020 .L0 
     /tmp/cciHVlBk.s:59     .text:0000000000000020 .L0 
     /tmp/cciHVlBk.s:61     .text:0000000000000024 .L0 
     /tmp/cciHVlBk.s:63     .text:0000000000000028 .L0 
     /tmp/cciHVlBk.s:69     .text:0000000000000028 _ZdlPv
     /tmp/cciHVlBk.s:72     .text:0000000000000028 .L0 
     /tmp/cciHVlBk.s:74     .text:0000000000000028 .L0 
     /tmp/cciHVlBk.s:75     .text:000000000000002c .L0 
     /tmp/cciHVlBk.s:78     .text:0000000000000034 .L0 
     /tmp/cciHVlBk.s:79     .text:0000000000000034 .L0 
     /tmp/cciHVlBk.s:81     .text:0000000000000038 .L0 
     /tmp/cciHVlBk.s:83     .text:0000000000000038 .L0 
     /tmp/cciHVlBk.s:84     .text:0000000000000038 .L0 
     /tmp/cciHVlBk.s:87     .text:0000000000000040 .L0 
     /tmp/cciHVlBk.s:88     .text:0000000000000044 .L0 
     /tmp/cciHVlBk.s:90     .text:0000000000000048 .L0 
     /tmp/cciHVlBk.s:91     .text:0000000000000048 .L0 
     /tmp/cciHVlBk.s:93     .text:000000000000004c .L0 
     /tmp/cciHVlBk.s:95     .text:0000000000000050 .L0 
     /tmp/cciHVlBk.s:101    .text:0000000000000050 _ZN6ThreadD2Ev
     /tmp/cciHVlBk.s:104    .text:0000000000000050 .L0 
     /tmp/cciHVlBk.s:2673   .data.rel.local.DW.ref.__gxx_personality_v0:0000000000000000 DW.ref.__gxx_personality_v0
     /tmp/cciHVlBk.s:108    .text:0000000000000050 .L0 
     /tmp/cciHVlBk.s:109    .text:0000000000000054 .L0 
     /tmp/cciHVlBk.s:113    .text:0000000000000060 .L0 
     /tmp/cciHVlBk.s:114    .text:0000000000000060 .L0 
     /tmp/cciHVlBk.s:115    .text:0000000000000060 .L0 
     /tmp/cciHVlBk.s:117    .text:0000000000000064 .L0 
     /tmp/cciHVlBk.s:402    .data.rel.ro.local._ZTV6Thread:0000000000000000 _ZTV6Thread
     /tmp/cciHVlBk.s:120    .text:0000000000000064 .L0 
     /tmp/cciHVlBk.s:123    .text:0000000000000070 .L0 
     /tmp/cciHVlBk.s:124    .text:0000000000000070 .L0 
     /tmp/cciHVlBk.s:126    .text:0000000000000074 .L0 
GAS LISTING /tmp/cciHVlBk.s 			page 12


     /tmp/cciHVlBk.s:132    .text:0000000000000078 .L0 
     /tmp/cciHVlBk.s:133    .text:0000000000000078 .L0 
     /tmp/cciHVlBk.s:136    .text:000000000000007c .L0 
     /tmp/cciHVlBk.s:138    .text:0000000000000080 .L0 
     /tmp/cciHVlBk.s:144    .text:0000000000000088 .L0 
     /tmp/cciHVlBk.s:150    .text:0000000000000094 .L0 
     /tmp/cciHVlBk.s:151    .text:0000000000000098 .L0 
     /tmp/cciHVlBk.s:153    .text:000000000000009c .L0 
     /tmp/cciHVlBk.s:154    .text:000000000000009c .L0 
     /tmp/cciHVlBk.s:156    .text:00000000000000a0 .L0 
     /tmp/cciHVlBk.s:158    .text:00000000000000a4 .L0 
     /tmp/cciHVlBk.s:160    .text:00000000000000a8 .L0 
     /tmp/cciHVlBk.s:101    .text:0000000000000050 _ZN6ThreadD1Ev
     /tmp/cciHVlBk.s:176    .text:00000000000000a8 _ZN6ThreadD0Ev
     /tmp/cciHVlBk.s:179    .text:00000000000000a8 .L0 
     /tmp/cciHVlBk.s:181    .text:00000000000000a8 .L0 
     /tmp/cciHVlBk.s:182    .text:00000000000000ac .L0 
     /tmp/cciHVlBk.s:186    .text:00000000000000b8 .L0 
     /tmp/cciHVlBk.s:187    .text:00000000000000b8 .L0 
     /tmp/cciHVlBk.s:188    .text:00000000000000b8 .L0 
     /tmp/cciHVlBk.s:190    .text:00000000000000bc .L0 
     /tmp/cciHVlBk.s:193    .text:00000000000000c0 .L0 
     /tmp/cciHVlBk.s:199    .text:00000000000000d8 .L0 
     /tmp/cciHVlBk.s:201    .text:00000000000000dc .L0 
     /tmp/cciHVlBk.s:202    .text:00000000000000dc .L0 
     /tmp/cciHVlBk.s:204    .text:00000000000000e0 .L0 
     /tmp/cciHVlBk.s:207    .text:00000000000000e4 .L0 
     /tmp/cciHVlBk.s:209    .text:00000000000000e8 .L0 
     /tmp/cciHVlBk.s:215    .text:00000000000000e8 _ZN6Thread8dispatchEv
     /tmp/cciHVlBk.s:218    .text:00000000000000e8 .L0 
     /tmp/cciHVlBk.s:219    .text:00000000000000e8 .L0 
     /tmp/cciHVlBk.s:220    .text:00000000000000ec .L0 
     /tmp/cciHVlBk.s:223    .text:00000000000000f4 .L0 
     /tmp/cciHVlBk.s:224    .text:00000000000000f4 .L0 
     /tmp/cciHVlBk.s:226    .text:00000000000000f8 .L0 
     /tmp/cciHVlBk.s:228    .text:00000000000000f8 .L0 
     /tmp/cciHVlBk.s:229    .text:00000000000000f8 .L0 
     /tmp/cciHVlBk.s:232    .text:0000000000000100 .L0 
     /tmp/cciHVlBk.s:233    .text:0000000000000104 .L0 
     /tmp/cciHVlBk.s:235    .text:0000000000000108 .L0 
     /tmp/cciHVlBk.s:236    .text:0000000000000108 .L0 
     /tmp/cciHVlBk.s:238    .text:000000000000010c .L0 
     /tmp/cciHVlBk.s:240    .text:0000000000000110 .L0 
     /tmp/cciHVlBk.s:246    .text:0000000000000110 _ZN6ThreadC2EPFvPvES0_
     /tmp/cciHVlBk.s:249    .text:0000000000000110 .L0 
     /tmp/cciHVlBk.s:251    .text:0000000000000110 .L0 
     /tmp/cciHVlBk.s:252    .text:0000000000000114 .L0 
     /tmp/cciHVlBk.s:255    .text:000000000000011c .L0 
     /tmp/cciHVlBk.s:256    .text:000000000000011c .L0 
     /tmp/cciHVlBk.s:258    .text:0000000000000120 .L0 
     /tmp/cciHVlBk.s:261    .text:0000000000000120 .L0 
     /tmp/cciHVlBk.s:264    .text:000000000000012c .L0 
     /tmp/cciHVlBk.s:265    .text:000000000000012c .L0 
     /tmp/cciHVlBk.s:271    .text:0000000000000138 .L0 
     /tmp/cciHVlBk.s:272    .text:000000000000013c .L0 
     /tmp/cciHVlBk.s:274    .text:0000000000000140 .L0 
     /tmp/cciHVlBk.s:275    .text:0000000000000140 .L0 
GAS LISTING /tmp/cciHVlBk.s 			page 13


     /tmp/cciHVlBk.s:277    .text:0000000000000144 .L0 
     /tmp/cciHVlBk.s:279    .text:0000000000000148 .L0 
     /tmp/cciHVlBk.s:246    .text:0000000000000110 _ZN6ThreadC1EPFvPvES0_
     /tmp/cciHVlBk.s:287    .text:0000000000000148 _ZN6ThreadC2Ev
     /tmp/cciHVlBk.s:290    .text:0000000000000148 .L0 
     /tmp/cciHVlBk.s:292    .text:0000000000000148 .L0 
     /tmp/cciHVlBk.s:293    .text:000000000000014c .L0 
     /tmp/cciHVlBk.s:296    .text:0000000000000154 .L0 
     /tmp/cciHVlBk.s:297    .text:0000000000000154 .L0 
     /tmp/cciHVlBk.s:299    .text:0000000000000158 .L0 
     /tmp/cciHVlBk.s:302    .text:0000000000000158 .L0 
     /tmp/cciHVlBk.s:305    .text:0000000000000164 .L0 
     /tmp/cciHVlBk.s:306    .text:0000000000000164 .L0 
     /tmp/cciHVlBk.s:314    .text:0000000000000178 .L0 
     /tmp/cciHVlBk.s:315    .text:000000000000017c .L0 
     /tmp/cciHVlBk.s:317    .text:0000000000000180 .L0 
     /tmp/cciHVlBk.s:318    .text:0000000000000180 .L0 
     /tmp/cciHVlBk.s:320    .text:0000000000000184 .L0 
     /tmp/cciHVlBk.s:322    .text:0000000000000188 .L0 
     /tmp/cciHVlBk.s:287    .text:0000000000000148 _ZN6ThreadC1Ev
     /tmp/cciHVlBk.s:330    .text:0000000000000188 _ZN6Thread4joinEv
     /tmp/cciHVlBk.s:333    .text:0000000000000188 .L0 
     /tmp/cciHVlBk.s:335    .text:0000000000000188 .L0 
     /tmp/cciHVlBk.s:336    .text:000000000000018c .L0 
     /tmp/cciHVlBk.s:339    .text:0000000000000194 .L0 
     /tmp/cciHVlBk.s:340    .text:0000000000000194 .L0 
     /tmp/cciHVlBk.s:342    .text:0000000000000198 .L0 
     /tmp/cciHVlBk.s:344    .text:0000000000000198 .L0 
     /tmp/cciHVlBk.s:345    .text:0000000000000198 .L0 
     /tmp/cciHVlBk.s:350    .text:00000000000001a4 .L0 
     /tmp/cciHVlBk.s:351    .text:00000000000001a8 .L0 
     /tmp/cciHVlBk.s:353    .text:00000000000001ac .L0 
     /tmp/cciHVlBk.s:354    .text:00000000000001ac .L0 
     /tmp/cciHVlBk.s:356    .text:00000000000001b0 .L0 
     /tmp/cciHVlBk.s:358    .text:00000000000001b4 .L0 
     /tmp/cciHVlBk.s:364    .text:00000000000001b4 _ZN6Thread5startEv
     /tmp/cciHVlBk.s:367    .text:00000000000001b4 .L0 
     /tmp/cciHVlBk.s:369    .text:00000000000001b4 .L0 
     /tmp/cciHVlBk.s:370    .text:00000000000001b8 .L0 
     /tmp/cciHVlBk.s:373    .text:00000000000001c0 .L0 
     /tmp/cciHVlBk.s:374    .text:00000000000001c0 .L0 
     /tmp/cciHVlBk.s:376    .text:00000000000001c4 .L0 
     /tmp/cciHVlBk.s:378    .text:00000000000001c4 .L0 
     /tmp/cciHVlBk.s:379    .text:00000000000001c4 .L0 
     /tmp/cciHVlBk.s:384    .text:00000000000001d0 .L0 
     /tmp/cciHVlBk.s:385    .text:00000000000001d0 .L0 
     /tmp/cciHVlBk.s:387    .text:00000000000001d8 .L0 
     /tmp/cciHVlBk.s:389    .text:00000000000001dc .L0 
     /tmp/cciHVlBk.s:390    .text:00000000000001dc .L0 
     /tmp/cciHVlBk.s:392    .text:00000000000001e0 .L0 
     /tmp/cciHVlBk.s:394    .text:00000000000001e4 .L0 
     /tmp/cciHVlBk.s:32     .text._ZN6Thread3runEv:0000000000000018 .L0 
     /tmp/cciHVlBk.s:413    .text:00000000000001e4 .L0 
     /tmp/cciHVlBk.s:120    .text:0000000000000064 .L0 
     /tmp/cciHVlBk.s:261    .text:0000000000000120 .L0 
     /tmp/cciHVlBk.s:302    .text:0000000000000158 .L0 
     /tmp/cciHVlBk.s:147    .text:0000000000000094 .L7
GAS LISTING /tmp/cciHVlBk.s 			page 14


     /tmp/cciHVlBk.s:140    .text:0000000000000088 .L9
     /tmp/cciHVlBk.s:1328   .debug_abbrev:0000000000000000 .Ldebug_abbrev0
     /tmp/cciHVlBk.s:2629   .debug_str:000000000000043a .LASF74
     /tmp/cciHVlBk.s:2611   .debug_str:00000000000003b5 .LASF75
     /tmp/cciHVlBk.s:2521   .debug_str:00000000000000ef .LASF76
     /tmp/cciHVlBk.s:2479   .debug_ranges:0000000000000000 .Ldebug_ranges0
     /tmp/cciHVlBk.s:2487   .debug_line:0000000000000000 .Ldebug_line0
     /tmp/cciHVlBk.s:2575   .debug_str:00000000000002c0 .LASF0
     /tmp/cciHVlBk.s:2589   .debug_str:0000000000000320 .LASF1
     /tmp/cciHVlBk.s:2569   .debug_str:0000000000000277 .LASF2
     /tmp/cciHVlBk.s:2555   .debug_str:000000000000021c .LASF4
     /tmp/cciHVlBk.s:2617   .debug_str:00000000000003e6 .LASF3
     /tmp/cciHVlBk.s:2505   .debug_str:000000000000006a .LASF5
     /tmp/cciHVlBk.s:2593   .debug_str:0000000000000345 .LASF6
     /tmp/cciHVlBk.s:2573   .debug_str:00000000000002ad .LASF7
     /tmp/cciHVlBk.s:2645   .debug_str:000000000000055c .LASF8
     /tmp/cciHVlBk.s:2547   .debug_str:00000000000001e0 .LASF9
     /tmp/cciHVlBk.s:2599   .debug_str:0000000000000372 .LASF10
     /tmp/cciHVlBk.s:2633   .debug_str:0000000000000508 .LASF11
     /tmp/cciHVlBk.s:2509   .debug_str:0000000000000087 .LASF12
     /tmp/cciHVlBk.s:2491   .debug_str:0000000000000009 .LASF13
     /tmp/cciHVlBk.s:2513   .debug_str:00000000000000a6 .LASF14
     /tmp/cciHVlBk.s:2613   .debug_str:00000000000003c9 .LASF15
     /tmp/cciHVlBk.s:2523   .debug_str:0000000000000112 .LASF16
     /tmp/cciHVlBk.s:2489   .debug_str:0000000000000000 .LASF17
     /tmp/cciHVlBk.s:2553   .debug_str:0000000000000214 .LASF32
     /tmp/cciHVlBk.s:2495   .debug_str:0000000000000028 .LASF77
     /tmp/cciHVlBk.s:2539   .debug_str:000000000000019c .LASF18
     /tmp/cciHVlBk.s:2529   .debug_str:0000000000000145 .LASF19
     /tmp/cciHVlBk.s:2515   .debug_str:00000000000000b2 .LASF20
     /tmp/cciHVlBk.s:2519   .debug_str:00000000000000d0 .LASF22
     /tmp/cciHVlBk.s:2499   .debug_str:0000000000000049 .LASF42
     /tmp/cciHVlBk.s:2535   .debug_str:0000000000000173 .LASF78
     /tmp/cciHVlBk.s:2527   .debug_str:0000000000000137 .LASF28
     /tmp/cciHVlBk.s:2571   .debug_str:0000000000000285 .LASF30
     /tmp/cciHVlBk.s:2609   .debug_str:00000000000003b0 .LASF79
     /tmp/cciHVlBk.s:2501   .debug_str:0000000000000055 .LASF21
     /tmp/cciHVlBk.s:2585   .debug_str:00000000000002fc .LASF23
     /tmp/cciHVlBk.s:2627   .debug_str:000000000000042e .LASF24
     /tmp/cciHVlBk.s:2659   .debug_str:00000000000005c4 .LASF26
     /tmp/cciHVlBk.s:2655   .debug_str:00000000000005a9 .LASF25
     /tmp/cciHVlBk.s:2565   .debug_str:000000000000023e .LASF27
     /tmp/cciHVlBk.s:2635   .debug_str:0000000000000517 .LASF29
     /tmp/cciHVlBk.s:2595   .debug_str:0000000000000358 .LASF31
     /tmp/cciHVlBk.s:2583   .debug_str:00000000000002e1 .LASF33
     /tmp/cciHVlBk.s:2643   .debug_str:0000000000000553 .LASF34
     /tmp/cciHVlBk.s:2557   .debug_str:0000000000000223 .LASF35
     /tmp/cciHVlBk.s:2561   .debug_str:0000000000000230 .LASF36
     /tmp/cciHVlBk.s:2579   .debug_str:00000000000002d6 .LASF37
     /tmp/cciHVlBk.s:2631   .debug_str:00000000000004fe .LASF38
     /tmp/cciHVlBk.s:2581   .debug_str:00000000000002dc .LASF39
     /tmp/cciHVlBk.s:2503   .debug_str:0000000000000064 .LASF40
     /tmp/cciHVlBk.s:2597   .debug_str:0000000000000368 .LASF41
     /tmp/cciHVlBk.s:2653   .debug_str:0000000000000595 .LASF80
     /tmp/cciHVlBk.s:2551   .debug_str:0000000000000200 .LASF81
     /tmp/cciHVlBk.s:2639   .debug_str:0000000000000527 .LASF82
     /tmp/cciHVlBk.s:2625   .debug_str:0000000000000420 .LASF83
GAS LISTING /tmp/cciHVlBk.s 			page 15


     /tmp/cciHVlBk.s:2637   .debug_str:0000000000000520 .LASF43
     /tmp/cciHVlBk.s:2591   .debug_str:0000000000000333 .LASF84
     /tmp/cciHVlBk.s:2567   .debug_str:000000000000026a .LASF85
     /tmp/cciHVlBk.s:2603   .debug_str:000000000000038b .LASF44
     /tmp/cciHVlBk.s:2559   .debug_str:0000000000000228 .LASF61
     /tmp/cciHVlBk.s:2511   .debug_str:0000000000000097 .LASF63
     /tmp/cciHVlBk.s:2587   .debug_str:000000000000031a .LASF57
     /tmp/cciHVlBk.s:2543   .debug_str:00000000000001be .LASF59
     /tmp/cciHVlBk.s:2619   .debug_str:00000000000003f8 .LASF45
     /tmp/cciHVlBk.s:2549   .debug_str:00000000000001ee .LASF46
     /tmp/cciHVlBk.s:2577   .debug_str:00000000000002cd .LASF47
     /tmp/cciHVlBk.s:2507   .debug_str:0000000000000071 .LASF48
     /tmp/cciHVlBk.s:2545   .debug_str:00000000000001d1 .LASF49
     /tmp/cciHVlBk.s:2531   .debug_str:000000000000014d .LASF86
     /tmp/cciHVlBk.s:2661   .debug_str:00000000000005e1 .LASF50
     /tmp/cciHVlBk.s:2647   .debug_str:000000000000056c .LASF87
     /tmp/cciHVlBk.s:365    .text:00000000000001b4 .LFB29
     /tmp/cciHVlBk.s:395    .text:00000000000001e4 .LFE29
     /tmp/cciHVlBk.s:2607   .debug_str:00000000000003ab .LASF51
     /tmp/cciHVlBk.s:2301   .debug_loc:0000000000000000 .LLST10
     /tmp/cciHVlBk.s:382    .text:00000000000001d0 .LVL26
     /tmp/cciHVlBk.s:331    .text:0000000000000188 .LFB28
     /tmp/cciHVlBk.s:359    .text:00000000000001b4 .LFE28
     /tmp/cciHVlBk.s:2315   .debug_loc:0000000000000039 .LLST9
     /tmp/cciHVlBk.s:348    .text:00000000000001a4 .LVL23
     /tmp/cciHVlBk.s:2651   .debug_str:0000000000000586 .LASF52
     /tmp/cciHVlBk.s:288    .text:0000000000000148 .LFB26
     /tmp/cciHVlBk.s:323    .text:0000000000000188 .LFE26
     /tmp/cciHVlBk.s:2329   .debug_loc:0000000000000072 .LLST8
     /tmp/cciHVlBk.s:311    .text:0000000000000178 .LVL20
     /tmp/cciHVlBk.s:2541   .debug_str:00000000000001a7 .LASF53
     /tmp/cciHVlBk.s:247    .text:0000000000000110 .LFB23
     /tmp/cciHVlBk.s:280    .text:0000000000000148 .LFE23
     /tmp/cciHVlBk.s:2349   .debug_loc:00000000000000c0 .LLST5
     /tmp/cciHVlBk.s:2369   .debug_loc:000000000000010e .LLST6
     /tmp/cciHVlBk.s:2383   .debug_loc:0000000000000147 .LLST7
     /tmp/cciHVlBk.s:268    .text:0000000000000138 .LVL17
     /tmp/cciHVlBk.s:216    .text:00000000000000e8 .LFB21
     /tmp/cciHVlBk.s:241    .text:0000000000000110 .LFE21
     /tmp/cciHVlBk.s:230    .text:0000000000000100 .LVL14
     /tmp/cciHVlBk.s:2601   .debug_str:0000000000000381 .LASF54
     /tmp/cciHVlBk.s:2525   .debug_str:0000000000000128 .LASF55
     /tmp/cciHVlBk.s:177    .text:00000000000000a8 .LFB20
     /tmp/cciHVlBk.s:210    .text:00000000000000e8 .LFE20
     /tmp/cciHVlBk.s:2397   .debug_loc:0000000000000180 .LLST4
     /tmp/cciHVlBk.s:194    .text:00000000000000c8 .LVL11
     /tmp/cciHVlBk.s:197    .text:00000000000000d4 .LVL12
     /tmp/cciHVlBk.s:2493   .debug_str:0000000000000019 .LASF56
     /tmp/cciHVlBk.s:102    .text:0000000000000050 .LFB18
     /tmp/cciHVlBk.s:161    .text:00000000000000a8 .LFE18
     /tmp/cciHVlBk.s:2415   .debug_loc:00000000000001cc .LLST2
     /tmp/cciHVlBk.s:128    .text:0000000000000078 .LBB7
     /tmp/cciHVlBk.s:142    .text:0000000000000088 .LBE7
     /tmp/cciHVlBk.s:2429   .debug_loc:0000000000000205 .LLST3
     /tmp/cciHVlBk.s:139    .text:0000000000000088 .LVL8
     /tmp/cciHVlBk.s:146    .text:0000000000000094 .LVL9
     /tmp/cciHVlBk.s:2621   .debug_str:00000000000003fd .LASF58
GAS LISTING /tmp/cciHVlBk.s 			page 16


     /tmp/cciHVlBk.s:2665   .debug_str:000000000000060f .LASF60
     /tmp/cciHVlBk.s:70     .text:0000000000000028 .LFB16
     /tmp/cciHVlBk.s:96     .text:0000000000000050 .LFE16
     /tmp/cciHVlBk.s:2436   .debug_loc:0000000000000228 .LLST1
     /tmp/cciHVlBk.s:85     .text:0000000000000040 .LVL4
     /tmp/cciHVlBk.s:2657   .debug_str:00000000000005b7 .LASF62
     /tmp/cciHVlBk.s:2563   .debug_str:0000000000000238 .LASF64
     /tmp/cciHVlBk.s:37     .text:0000000000000000 .LFB15
     /tmp/cciHVlBk.s:64     .text:0000000000000028 .LFE15
     /tmp/cciHVlBk.s:2450   .debug_loc:0000000000000261 .LLST0
     /tmp/cciHVlBk.s:53     .text:0000000000000018 .LVL2
     /tmp/cciHVlBk.s:2641   .debug_str:0000000000000543 .LASF88
     /tmp/cciHVlBk.s:11     .text._ZN6Thread3runEv:0000000000000000 .LFB0
     /tmp/cciHVlBk.s:30     .text._ZN6Thread3runEv:0000000000000018 .LFE0
     /tmp/cciHVlBk.s:2497   .debug_str:0000000000000030 .LASF65
     /tmp/cciHVlBk.s:2663   .debug_str:00000000000005ea .LASF66
     /tmp/cciHVlBk.s:2533   .debug_str:000000000000015e .LASF67
     /tmp/cciHVlBk.s:2615   .debug_str:00000000000003df .LASF68
     /tmp/cciHVlBk.s:2623   .debug_str:000000000000040d .LASF69
     /tmp/cciHVlBk.s:2537   .debug_str:000000000000018e .LASF70
     /tmp/cciHVlBk.s:2605   .debug_str:00000000000003a2 .LASF71
     /tmp/cciHVlBk.s:2517   .debug_str:00000000000000c2 .LASF72
     /tmp/cciHVlBk.s:2649   .debug_str:000000000000057c .LASF73
     /tmp/cciHVlBk.s:368    .text:00000000000001b4 .LVL24
     /tmp/cciHVlBk.s:380    .text:00000000000001c8 .LVL25
     /tmp/cciHVlBk.s:334    .text:0000000000000188 .LVL21
     /tmp/cciHVlBk.s:346    .text:000000000000019c .LVL22
     /tmp/cciHVlBk.s:291    .text:0000000000000148 .LVL18
     /tmp/cciHVlBk.s:309    .text:0000000000000170 .LVL19
     /tmp/cciHVlBk.s:250    .text:0000000000000110 .LVL15
     /tmp/cciHVlBk.s:266    .text:0000000000000130 .LVL16
     /tmp/cciHVlBk.s:180    .text:00000000000000a8 .LVL10
     /tmp/cciHVlBk.s:205    .text:00000000000000e0 .LVL13
     /tmp/cciHVlBk.s:107    .text:0000000000000050 .LVL5
     /tmp/cciHVlBk.s:134    .text:000000000000007c .LVL7
     /tmp/cciHVlBk.s:127    .text:0000000000000078 .LVL6
     /tmp/cciHVlBk.s:73     .text:0000000000000028 .LVL3
     /tmp/cciHVlBk.s:41     .text:0000000000000000 .LVL1
     /tmp/cciHVlBk.s:414    .debug_info:0000000000000000 .Ldebug_info0
     /tmp/cciHVlBk.s:5      .text:0000000000000000 .Ltext0
     /tmp/cciHVlBk.s:409    .text:00000000000001e4 .Letext0
     /tmp/cciHVlBk.s:164    .gcc_except_table:0000000000000000 .LLSDA18

UNDEFINED SYMBOLS
_Z9mem_allocm
_Z8mem_freePv
_ZdaPv
__gxx_personality_v0
_Z15thread_dispatchv
_Z13thread_createPP7_threadPFvPvES2_
_Z11thread_joinP7_thread
_ZN9Scheduler3putEP7_thread
